	.file	"basis_set_orbital.cc"
	.text
#APP
	.globl _ZSt21ios_base_library_initv
#NO_APP
	.section	.text._ZNSt6thread24_M_thread_deps_never_runEv,"axG",@progbits,_ZNSt6thread24_M_thread_deps_never_runEv,comdat
	.weak	_ZNSt6thread24_M_thread_deps_never_runEv
	.type	_ZNSt6thread24_M_thread_deps_never_runEv, @function
_ZNSt6thread24_M_thread_deps_never_runEv:
.LFB7878:
	.cfi_startproc
	endbr64
	ret
	.cfi_endproc
.LFE7878:
	.size	_ZNSt6thread24_M_thread_deps_never_runEv, .-_ZNSt6thread24_M_thread_deps_never_runEv
	.section	.text._ZN22basis_set_calculationsIdE19Wavefunction_squareEPdS1_j,"axG",@progbits,_ZN22basis_set_calculationsIdE19Wavefunction_squareEPdS1_j,comdat
	.align 2
	.weak	_ZN22basis_set_calculationsIdE19Wavefunction_squareEPdS1_j
	.type	_ZN22basis_set_calculationsIdE19Wavefunction_squareEPdS1_j, @function
_ZN22basis_set_calculationsIdE19Wavefunction_squareEPdS1_j:
.LFB11149:
	.cfi_startproc
	endbr64
	leal	1(%rcx,%rcx), %eax
	movl	%eax, %edi
	imull	%eax, %edi
	imull	%eax, %edi
	leal	-7(%rdi), %r8d
	cmpl	$7, %edi
	je	.L3
	movl	$0, %eax
.L4:
	movl	%eax, %ecx
	movsd	(%rsi,%rcx,8), %xmm0
	mulsd	%xmm0, %xmm0
	movsd	%xmm0, (%rdx,%rcx,8)
	leal	1(%rax), %ecx
	movsd	(%rsi,%rcx,8), %xmm0
	mulsd	%xmm0, %xmm0
	movsd	%xmm0, (%rdx,%rcx,8)
	leal	2(%rax), %ecx
	movsd	(%rsi,%rcx,8), %xmm0
	mulsd	%xmm0, %xmm0
	movsd	%xmm0, (%rdx,%rcx,8)
	leal	3(%rax), %ecx
	movsd	(%rsi,%rcx,8), %xmm0
	mulsd	%xmm0, %xmm0
	movsd	%xmm0, (%rdx,%rcx,8)
	leal	4(%rax), %ecx
	movsd	(%rsi,%rcx,8), %xmm0
	mulsd	%xmm0, %xmm0
	movsd	%xmm0, (%rdx,%rcx,8)
	leal	5(%rax), %ecx
	movsd	(%rsi,%rcx,8), %xmm0
	mulsd	%xmm0, %xmm0
	movsd	%xmm0, (%rdx,%rcx,8)
	leal	6(%rax), %ecx
	movsd	(%rsi,%rcx,8), %xmm0
	mulsd	%xmm0, %xmm0
	movsd	%xmm0, (%rdx,%rcx,8)
	leal	7(%rax), %ecx
	movsd	(%rsi,%rcx,8), %xmm0
	mulsd	%xmm0, %xmm0
	movsd	%xmm0, (%rdx,%rcx,8)
	addl	$8, %eax
	cmpl	%r8d, %eax
	jb	.L4
	movl	%edi, %ecx
	andl	$-8, %ecx
	cmpl	%edi, %ecx
	jnb	.L8
.L7:
	movl	%ecx, %r8d
	leaq	0(,%r8,8), %rax
	subl	$1, %edi
	subl	%ecx, %edi
	leaq	1(%r8,%rdi), %rcx
	salq	$3, %rcx
.L6:
	movsd	(%rsi,%rax), %xmm0
	mulsd	%xmm0, %xmm0
	movsd	%xmm0, (%rdx,%rax)
	addq	$8, %rax
	cmpq	%rcx, %rax
	jne	.L6
.L8:
	pxor	%xmm0, %xmm0
	ret
.L3:
	movl	%edi, %ecx
	andl	$-8, %ecx
	jmp	.L7
	.cfi_endproc
.LFE11149:
	.size	_ZN22basis_set_calculationsIdE19Wavefunction_squareEPdS1_j, .-_ZN22basis_set_calculationsIdE19Wavefunction_squareEPdS1_j
	.section	.text._ZN22basis_set_calculationsIdE16Integral_kineticEPdS1_S1_jddd,"axG",@progbits,_ZN22basis_set_calculationsIdE16Integral_kineticEPdS1_S1_jddd,comdat
	.align 2
	.weak	_ZN22basis_set_calculationsIdE16Integral_kineticEPdS1_S1_jddd
	.type	_ZN22basis_set_calculationsIdE16Integral_kineticEPdS1_S1_jddd, @function
_ZN22basis_set_calculationsIdE16Integral_kineticEPdS1_S1_jddd:
.LFB11160:
	.cfi_startproc
	endbr64
	pushq	%r15
	.cfi_def_cfa_offset 16
	.cfi_offset 15, -16
	pushq	%r14
	.cfi_def_cfa_offset 24
	.cfi_offset 14, -24
	pushq	%r13
	.cfi_def_cfa_offset 32
	.cfi_offset 13, -32
	pushq	%r12
	.cfi_def_cfa_offset 40
	.cfi_offset 12, -40
	pushq	%rbp
	.cfi_def_cfa_offset 48
	.cfi_offset 6, -48
	pushq	%rbx
	.cfi_def_cfa_offset 56
	.cfi_offset 3, -56
	movq	%rsi, %rax
	movq	%rcx, -16(%rsp)
	movapd	%xmm0, %xmm3
	movl	%r8d, %ecx
	pxor	%xmm4, %xmm4
	cvtsi2sdq	%rcx, %xmm4
	movsd	.LC5(%rip), %xmm0
	divsd	200(%rdi), %xmm0
	movapd	%xmm3, %xmm5
	mulsd	%xmm0, %xmm5
	mulsd	%xmm4, %xmm5
	cvttsd2sil	%xmm5, %ebx
	movapd	%xmm1, %xmm5
	mulsd	%xmm0, %xmm5
	mulsd	%xmm4, %xmm5
	cvttsd2sil	%xmm5, %r10d
	mulsd	%xmm2, %xmm0
	mulsd	%xmm4, %xmm0
	cvttsd2sil	%xmm0, %r9d
	leal	(%r8,%r8), %r13d
	leal	1(%r13), %r11d
	movl	%r10d, %ecx
	negl	%ecx
	cmovs	%r10d, %ecx
	movl	%ecx, %r14d
	movl	%r9d, %ecx
	negl	%ecx
	cmovs	%r9d, %ecx
	movl	%ebx, %r12d
	negl	%r12d
	cmovs	%ebx, %r12d
	cmpl	%r11d, %r12d
	cmova	%r11d, %r12d
	cmpl	%r14d, %r11d
	movl	%r14d, %r8d
	cmovbe	%r11d, %r8d
	cmpl	%ecx, %r11d
	movl	%ecx, %esi
	cmovbe	%r11d, %esi
	cmpl	%r12d, %r8d
	movl	%r12d, %ebp
	cmovnb	%r8d, %ebp
	cmpl	%esi, %ebp
	cmovb	%esi, %ebp
	movsd	.LC4(%rip), %xmm0
	cmpl	%r11d, %ebp
	jb	.L51
.L11:
	popq	%rbx
	.cfi_remember_state
	.cfi_def_cfa_offset 48
	popq	%rbp
	.cfi_def_cfa_offset 40
	popq	%r12
	.cfi_def_cfa_offset 32
	popq	%r13
	.cfi_def_cfa_offset 24
	popq	%r14
	.cfi_def_cfa_offset 16
	popq	%r15
	.cfi_def_cfa_offset 8
	ret
.L51:
	.cfi_restore_state
	testl	%ebx, %ebx
	movl	$0, %ebp
	cmovs	%r12d, %ebp
	movl	%ebp, -32(%rsp)
	movl	$0, %ebx
	cmovns	%r12d, %ebx
	movl	%ebx, -44(%rsp)
	testl	%r10d, %r10d
	movl	$0, %ebx
	cmovs	%r8d, %ebx
	movl	%ebx, -20(%rsp)
	movl	$0, %r10d
	cmovns	%r8d, %r10d
	movl	%r10d, -40(%rsp)
	testl	%r9d, %r9d
	movl	$0, %r10d
	cmovs	%esi, %r10d
	movl	%r10d, -8(%rsp)
	movl	$0, %r9d
	cmovns	%esi, %r9d
	movl	%r9d, -24(%rsp)
	movl	%r11d, %r9d
	subl	%r12d, %r9d
	movl	%r9d, %ebx
	andl	$-8, %ebx
	pxor	%xmm0, %xmm0
	ucomisd	%xmm0, %xmm1
	setp	%bpl
	movl	$1, %r15d
	cmovne	%r15d, %ebp
	ucomisd	%xmm0, %xmm2
	setp	%r10b
	cmovne	%r15d, %r10d
	orb	%bpl, %r10b
	jne	.L18
	ucomisd	%xmm0, %xmm3
	setp	%r10b
	movl	$1, %ebp
	cmovne	%ebp, %r10d
	testb	%r10b, %r10b
	je	.L52
.L18:
	movl	%r11d, %r10d
	subl	%esi, %r10d
	movl	%r10d, -36(%rsp)
	cmpl	%r11d, %ecx
	jnb	.L40
	movl	%r11d, %r15d
	imull	%r11d, %r15d
	movl	-8(%rsp), %ecx
	imull	%r11d, %ecx
	movl	-20(%rsp), %esi
	addl	%esi, %ecx
	imull	%r11d, %ecx
	movl	%ecx, %esi
	movl	-32(%rsp), %r12d
	leal	(%rcx,%r12), %ecx
	movl	-24(%rsp), %r10d
	imull	%r11d, %r10d
	movl	-40(%rsp), %ebp
	addl	%ebp, %r10d
	imull	%r11d, %r10d
	movl	-44(%rsp), %ebp
	subl	%r12d, %ebp
	addl	%ebp, %r10d
	subl	%esi, %r10d
	movl	%r10d, -20(%rsp)
	pxor	%xmm5, %xmm5
	movapd	%xmm5, %xmm4
	movapd	%xmm5, %xmm6
	movapd	%xmm5, %xmm7
	movapd	%xmm5, %xmm2
	movapd	%xmm5, %xmm3
	movapd	%xmm5, %xmm8
	movapd	%xmm5, %xmm0
	movl	$0, %esi
	movl	%r11d, %r12d
	subl	%r8d, %r12d
	leal	-8(%r9), %ebp
	andl	$-8, %ebp
	addl	$8, %ebp
	movl	%r15d, -24(%rsp)
	movl	%r14d, -32(%rsp)
	movq	%rdi, -8(%rsp)
	jmp	.L21
.L52:
	movl	%r11d, %r10d
	imull	%r11d, %r10d
	movl	%r9d, %esi
	movapd	%xmm0, %xmm5
	movapd	%xmm0, %xmm4
	movapd	%xmm0, %xmm6
	movapd	%xmm0, %xmm7
	movapd	%xmm0, %xmm2
	movapd	%xmm0, %xmm3
	movapd	%xmm0, %xmm8
	movl	$0, %r8d
	subl	%r11d, %r12d
	leal	-8(%r9), %ecx
	andl	$-8, %ecx
	leal	8(%rcx), %r14d
	addl	$4, %ecx
	movl	%ecx, -44(%rsp)
	leal	(%r12,%rbx), %r15d
	movl	%r10d, -24(%rsp)
	movq	%rdi, -32(%rsp)
	jmp	.L19
.L22:
	movl	%ecx, %r14d
	movl	%esi, %r13d
	movsd	(%rax,%r14,8), %xmm1
	mulsd	(%rdx,%r13,8), %xmm1
	addsd	%xmm1, %xmm0
	leal	1(%rcx), %r14d
	leal	1(%rsi), %r13d
	movsd	(%rax,%r14,8), %xmm1
	mulsd	(%rdx,%r13,8), %xmm1
	addsd	%xmm1, %xmm8
	leal	2(%rcx), %r14d
	leal	2(%rsi), %r13d
	movsd	(%rax,%r14,8), %xmm1
	mulsd	(%rdx,%r13,8), %xmm1
	addsd	%xmm1, %xmm3
	leal	3(%rcx), %r14d
	leal	3(%rsi), %r13d
	movsd	(%rax,%r14,8), %xmm1
	mulsd	(%rdx,%r13,8), %xmm1
	addsd	%xmm1, %xmm2
	leal	4(%rcx), %r14d
	leal	4(%rsi), %r13d
	movsd	(%rax,%r14,8), %xmm1
	mulsd	(%rdx,%r13,8), %xmm1
	addsd	%xmm1, %xmm7
	leal	5(%rcx), %r14d
	leal	5(%rsi), %r13d
	movsd	(%rax,%r14,8), %xmm1
	mulsd	(%rdx,%r13,8), %xmm1
	addsd	%xmm1, %xmm6
	leal	6(%rcx), %r14d
	leal	6(%rsi), %r13d
	movsd	(%rax,%r14,8), %xmm1
	mulsd	(%rdx,%r13,8), %xmm1
	addsd	%xmm1, %xmm4
	leal	7(%rcx), %r14d
	leal	7(%rsi), %r13d
	movsd	(%rax,%r14,8), %xmm1
	mulsd	(%rdx,%r13,8), %xmm1
	addsd	%xmm1, %xmm5
	addl	$8, %ecx
	addl	$8, %esi
	cmpl	%ecx, %r15d
	jne	.L22
.L27:
	cmpl	%r9d, %ebx
	jnb	.L23
	leal	(%rdi,%rbx), %ecx
	movl	%r8d, %r15d
	subl	%edi, %r15d
	leal	(%rdi,%r9), %r14d
.L24:
	leal	(%r15,%rcx), %r13d
	movl	%ecx, %esi
	movsd	(%rdx,%r13,8), %xmm1
	mulsd	(%rax,%rsi,8), %xmm1
	addsd	%xmm1, %xmm0
	addl	$1, %ecx
	cmpl	%ecx, %r14d
	jne	.L24
.L23:
	addl	$1, %r10d
	addl	%r11d, %r8d
	addl	%r11d, %edi
	cmpl	%r12d, %r10d
	jnb	.L45
.L28:
	leal	0(%rbp,%rdi), %r15d
	movl	%r8d, %esi
	movl	%edi, %ecx
	cmpl	$7, %r9d
	ja	.L22
	jmp	.L27
.L45:
	movl	-44(%rsp), %ecx
	movl	-40(%rsp), %esi
.L25:
	addl	$1, %esi
	movl	-24(%rsp), %edi
	addl	%edi, %ecx
	movl	-36(%rsp), %edi
	cmpl	%edi, %esi
	je	.L47
.L21:
	cmpl	%r11d, -32(%rsp)
	jnb	.L25
	movl	-20(%rsp), %edi
	addl	%ecx, %edi
	movl	%ecx, %r8d
	movl	$0, %r10d
	movl	%ecx, -44(%rsp)
	movl	%esi, -40(%rsp)
	jmp	.L28
.L29:
	movl	%ecx, %esi
	movsd	(%rax,%rsi,8), %xmm1
	mulsd	(%rdx,%rsi,8), %xmm1
	addsd	%xmm1, %xmm0
	leal	1(%rcx), %esi
	movsd	(%rax,%rsi,8), %xmm1
	mulsd	(%rdx,%rsi,8), %xmm1
	addsd	%xmm1, %xmm8
	leal	2(%rcx), %esi
	movsd	(%rax,%rsi,8), %xmm1
	mulsd	(%rdx,%rsi,8), %xmm1
	addsd	%xmm1, %xmm3
	leal	3(%rcx), %esi
	movsd	(%rax,%rsi,8), %xmm1
	mulsd	(%rdx,%rsi,8), %xmm1
	addsd	%xmm1, %xmm2
	leal	5(%rcx), %esi
	movsd	(%rax,%rsi,8), %xmm1
	mulsd	(%rdx,%rsi,8), %xmm1
	addsd	%xmm1, %xmm6
	leal	6(%rcx), %esi
	movsd	(%rax,%rsi,8), %xmm1
	mulsd	(%rdx,%rsi,8), %xmm1
	addsd	%xmm1, %xmm4
	leal	7(%rcx), %esi
	movsd	(%rax,%rsi,8), %xmm1
	mulsd	(%rdx,%rsi,8), %xmm1
	addsd	%xmm1, %xmm5
	addl	$8, %ecx
	cmpl	%ecx, %r8d
	jne	.L29
	movl	-44(%rsp), %ecx
	leal	(%rcx,%r10), %ecx
	movsd	(%rax,%rcx,8), %xmm7
	mulsd	(%rdx,%rcx,8), %xmm7
	addsd	%xmm2, %xmm7
.L34:
	cmpl	%r9d, %ebx
	jnb	.L30
	leal	(%r15,%rdi), %ecx
.L31:
	movl	%ecx, %esi
	movsd	(%rax,%rsi,8), %xmm1
	mulsd	(%rdx,%rsi,8), %xmm1
	addsd	%xmm1, %xmm0
	addl	$1, %ecx
	cmpl	%edi, %ecx
	jne	.L31
.L30:
	leal	1(%rbp), %ecx
	addl	%r11d, %edi
	cmpl	%ebp, %r13d
	je	.L32
	movl	%ecx, %ebp
.L35:
	leal	(%rdi,%r12), %r10d
	leal	(%r14,%r10), %r8d
	movl	%r10d, %ecx
	cmpl	$7, %r9d
	ja	.L29
	jmp	.L34
.L32:
	movl	-40(%rsp), %esi
	movl	-36(%rsp), %r8d
	leal	1(%r8), %ecx
	movl	-24(%rsp), %edi
	addl	%edi, %esi
	cmpl	%r8d, %r13d
	je	.L49
	movl	%ecx, %r8d
.L19:
	movl	%esi, %edi
	movl	$0, %ebp
	movl	%esi, -40(%rsp)
	movl	%r8d, -36(%rsp)
	jmp	.L35
.L40:
	pxor	%xmm5, %xmm5
	movapd	%xmm5, %xmm4
	movapd	%xmm5, %xmm6
	movapd	%xmm5, %xmm7
	movapd	%xmm5, %xmm2
	movapd	%xmm5, %xmm3
	movapd	%xmm5, %xmm8
	movapd	%xmm5, %xmm0
	jmp	.L20
.L47:
	movq	-8(%rsp), %rdi
.L20:
	movsd	96(%rdi), %xmm9
	movsd	80(%rdi), %xmm1
	addsd	%xmm2, %xmm3
	addsd	%xmm8, %xmm0
	addsd	%xmm3, %xmm0
	addsd	%xmm6, %xmm7
	addsd	%xmm5, %xmm4
	addsd	%xmm4, %xmm7
	addsd	%xmm7, %xmm0
	mulsd	.LC6(%rip), %xmm0
	mulsd	%xmm9, %xmm9
	mulsd	%xmm9, %xmm0
	mulsd	%xmm1, %xmm1
	mulsd	120(%rdi), %xmm1
	divsd	%xmm1, %xmm0
	movq	-16(%rsp), %rax
	movsd	%xmm0, (%rax)
	pxor	%xmm0, %xmm0
	jmp	.L11
.L49:
	movq	-32(%rsp), %rdi
	jmp	.L20
	.cfi_endproc
.LFE11160:
	.size	_ZN22basis_set_calculationsIdE16Integral_kineticEPdS1_S1_jddd, .-_ZN22basis_set_calculationsIdE16Integral_kineticEPdS1_S1_jddd
	.section	.text._ZN26basis_set_calculations_DFTIdE22Compute_density_threadEPPdS1_jjjSt6vectorIdSaIdEES3_IiSaIiEEb,"axG",@progbits,_ZN26basis_set_calculations_DFTIdE22Compute_density_threadEPPdS1_jjjSt6vectorIdSaIdEES3_IiSaIiEEb,comdat
	.align 2
	.weak	_ZN26basis_set_calculations_DFTIdE22Compute_density_threadEPPdS1_jjjSt6vectorIdSaIdEES3_IiSaIiEEb
	.type	_ZN26basis_set_calculations_DFTIdE22Compute_density_threadEPPdS1_jjjSt6vectorIdSaIdEES3_IiSaIiEEb, @function
_ZN26basis_set_calculations_DFTIdE22Compute_density_threadEPPdS1_jjjSt6vectorIdSaIdEES3_IiSaIiEEb:
.LFB11434:
	.cfi_startproc
	endbr64
	pushq	%r15
	.cfi_def_cfa_offset 16
	.cfi_offset 15, -16
	pushq	%r14
	.cfi_def_cfa_offset 24
	.cfi_offset 14, -24
	pushq	%r13
	.cfi_def_cfa_offset 32
	.cfi_offset 13, -32
	pushq	%r12
	.cfi_def_cfa_offset 40
	.cfi_offset 12, -40
	pushq	%rbp
	.cfi_def_cfa_offset 48
	.cfi_offset 6, -48
	pushq	%rbx
	.cfi_def_cfa_offset 56
	.cfi_offset 3, -56
	movq	%rsi, %rbp
	movq	%rdx, %rsi
	movl	%ecx, -4(%rsp)
	movq	64(%rsp), %r15
	movzbl	72(%rsp), %r12d
	cmpl	$7, %r9d
	jbe	.L54
	movq	%rdx, %rax
	leal	-8(%r9), %edx
	leaq	8(%rsi,%rdx,8), %rdx
.L55:
	movq	$0x000000000, (%rax)
	movq	$0x000000000, 8(%rax)
	movq	$0x000000000, 16(%rax)
	movq	$0x000000000, 24(%rax)
	movq	$0x000000000, 32(%rax)
	movq	$0x000000000, 40(%rax)
	movq	$0x000000000, 48(%rax)
	movq	$0x000000000, 56(%rax)
	addq	$8, %rax
	cmpq	%rdx, %rax
	jne	.L55
.L54:
	movl	%r9d, %r13d
	andl	$-8, %r13d
	cmpl	%r9d, %r13d
	jnb	.L56
	movl	%r13d, %ecx
	leaq	(%rsi,%rcx,8), %rax
	leal	-1(%r9), %edx
	subl	%r13d, %edx
	addq	%rcx, %rdx
	leaq	8(%rsi,%rdx,8), %rdx
.L57:
	movq	$0x000000000, (%rax)
	addq	$8, %rax
	cmpq	%rdx, %rax
	jne	.L57
.L56:
	movl	-4(%rsp), %r11d
	cmpl	%r11d, %r8d
	jb	.L58
	leal	-8(%r9), %eax
	shrl	$3, %eax
	movl	%eax, %eax
	salq	$6, %rax
	leaq	64(%rsi,%rax), %r10
	movl	%r13d, %edx
	leaq	0(,%rdx,8), %r14
	leal	-1(%r9), %eax
	subl	%r13d, %eax
	leaq	1(%rdx,%rax), %rdi
	salq	$3, %rdi
	movl	$1, %ebx
	movsd	.LC7(%rip), %xmm2
	movapd	%xmm2, %xmm3
	jmp	.L84
.L62:
	testb	%r12b, %r12b
	je	.L65
.L63:
	movq	56(%rsp), %rdx
	movq	(%rdx), %rdx
	ucomisd	(%rdx,%rax,8), %xmm2
	jp	.L65
	ucomisd	(%rdx,%rax,8), %xmm3
	je	.L105
.L65:
	cmpl	$1, %ebx
	je	.L106
.L64:
	movq	%rcx, %rdx
	movq	%rsi, -16(%rsp)
	movl	%ebx, %eax
	pxor	%xmm0, %xmm0
	cvtsi2sdq	%rax, %xmm0
	movq	-16(%rsp), %rax
	cmpl	$7, %r9d
	jbe	.L71
.L80:
	movapd	%xmm0, %xmm1
	mulsd	(%rdx), %xmm1
	addsd	(%rax), %xmm1
	movsd	%xmm1, (%rax)
	movapd	%xmm0, %xmm1
	mulsd	8(%rdx), %xmm1
	addsd	8(%rax), %xmm1
	movsd	%xmm1, 8(%rax)
	movapd	%xmm0, %xmm1
	mulsd	16(%rdx), %xmm1
	addsd	16(%rax), %xmm1
	movsd	%xmm1, 16(%rax)
	movapd	%xmm0, %xmm1
	mulsd	24(%rdx), %xmm1
	addsd	24(%rax), %xmm1
	movsd	%xmm1, 24(%rax)
	movapd	%xmm0, %xmm1
	mulsd	32(%rdx), %xmm1
	addsd	32(%rax), %xmm1
	movsd	%xmm1, 32(%rax)
	movapd	%xmm0, %xmm1
	mulsd	40(%rdx), %xmm1
	addsd	40(%rax), %xmm1
	movsd	%xmm1, 40(%rax)
	movapd	%xmm0, %xmm1
	mulsd	48(%rdx), %xmm1
	addsd	48(%rax), %xmm1
	movsd	%xmm1, 48(%rax)
	movapd	%xmm0, %xmm1
	mulsd	56(%rdx), %xmm1
	addsd	56(%rax), %xmm1
	movsd	%xmm1, 56(%rax)
	addq	$64, %rax
	addq	$64, %rdx
	cmpq	%r10, %rax
	jne	.L80
.L71:
	cmpl	%r9d, %r13d
	jnb	.L60
	movq	%r14, %rax
	movl	%ebx, %edx
	pxor	%xmm1, %xmm1
	cvtsi2sdq	%rdx, %xmm1
.L100:
	movapd	%xmm1, %xmm0
	mulsd	(%rcx,%rax), %xmm0
	addsd	(%rsi,%rax), %xmm0
	movsd	%xmm0, (%rsi,%rax)
	addq	$8, %rax
	cmpq	%rdi, %rax
	jne	.L100
.L60:
	addl	$1, %r11d
	cmpl	%r11d, %r8d
	jb	.L58
.L84:
	testb	%r12b, %r12b
	je	.L59
	movl	%r11d, %eax
	movq	(%r15), %rdx
	movl	(%rdx,%rax,4), %eax
	cmpl	$-1, %eax
	je	.L59
	cmpl	%eax, %r8d
	jb	.L59
	movl	-4(%rsp), %ecx
	cmpl	%ecx, %eax
	jnb	.L60
.L59:
	movl	%r11d, %eax
	leaq	0(%rbp,%rax,8), %rdx
	cmpl	$2, %ebx
	je	.L85
	movq	(%rdx), %rcx
	cmpl	%r8d, %r11d
	jnb	.L62
	testb	%r12b, %r12b
	jne	.L63
	leal	1(%r11), %eax
	cmpq	%rcx, 0(%rbp,%rax,8)
	jne	.L65
	movl	$2, %ebx
	jmp	.L64
.L105:
	movq	%rcx, %rdx
	movq	%rsi, %rax
	cmpl	$7, %r9d
	jbe	.L68
.L74:
	movsd	(%rax), %xmm0
	subsd	(%rdx), %xmm0
	movsd	%xmm0, (%rax)
	movsd	8(%rax), %xmm0
	subsd	8(%rdx), %xmm0
	movsd	%xmm0, 8(%rax)
	movsd	16(%rax), %xmm0
	subsd	16(%rdx), %xmm0
	movsd	%xmm0, 16(%rax)
	movsd	24(%rax), %xmm0
	subsd	24(%rdx), %xmm0
	movsd	%xmm0, 24(%rax)
	movsd	32(%rax), %xmm0
	subsd	32(%rdx), %xmm0
	movsd	%xmm0, 32(%rax)
	movsd	40(%rax), %xmm0
	subsd	40(%rdx), %xmm0
	movsd	%xmm0, 40(%rax)
	movsd	48(%rax), %xmm0
	subsd	48(%rdx), %xmm0
	movsd	%xmm0, 48(%rax)
	movsd	56(%rax), %xmm0
	subsd	56(%rdx), %xmm0
	movsd	%xmm0, 56(%rax)
	addq	$64, %rax
	addq	$64, %rdx
	cmpq	%rax, %r10
	jne	.L74
.L68:
	cmpl	%r9d, %r13d
	jnb	.L60
	movq	%r14, %rax
.L75:
	movsd	(%rsi,%rax), %xmm0
	subsd	(%rcx,%rax), %xmm0
	movsd	%xmm0, (%rsi,%rax)
	addq	$8, %rax
	cmpq	%rax, %rdi
	jne	.L75
	jmp	.L60
.L106:
	movq	%rcx, %rdx
	movq	%rsi, %rax
	cmpl	$7, %r9d
	jbe	.L73
.L76:
	movsd	(%rax), %xmm0
	addsd	(%rdx), %xmm0
	movsd	%xmm0, (%rax)
	movsd	8(%rax), %xmm0
	addsd	8(%rdx), %xmm0
	movsd	%xmm0, 8(%rax)
	movsd	16(%rax), %xmm0
	addsd	16(%rdx), %xmm0
	movsd	%xmm0, 16(%rax)
	movsd	24(%rax), %xmm0
	addsd	24(%rdx), %xmm0
	movsd	%xmm0, 24(%rax)
	movsd	32(%rax), %xmm0
	addsd	32(%rdx), %xmm0
	movsd	%xmm0, 32(%rax)
	movsd	40(%rax), %xmm0
	addsd	40(%rdx), %xmm0
	movsd	%xmm0, 40(%rax)
	movsd	48(%rax), %xmm0
	addsd	48(%rdx), %xmm0
	movsd	%xmm0, 48(%rax)
	movsd	56(%rax), %xmm0
	addsd	56(%rdx), %xmm0
	movsd	%xmm0, 56(%rax)
	addq	$64, %rax
	addq	$64, %rdx
	cmpq	%r10, %rax
	jne	.L76
.L73:
	cmpl	%r9d, %r13d
	jnb	.L60
	movq	%r14, %rax
.L77:
	movsd	(%rsi,%rax), %xmm0
	addsd	(%rcx,%rax), %xmm0
	movsd	%xmm0, (%rsi,%rax)
	addq	$8, %rax
	cmpq	%rdi, %rax
	jne	.L77
	jmp	.L60
.L85:
	movl	$1, %ebx
	jmp	.L60
.L58:
	pxor	%xmm0, %xmm0
	popq	%rbx
	.cfi_def_cfa_offset 48
	popq	%rbp
	.cfi_def_cfa_offset 40
	popq	%r12
	.cfi_def_cfa_offset 32
	popq	%r13
	.cfi_def_cfa_offset 24
	popq	%r14
	.cfi_def_cfa_offset 16
	popq	%r15
	.cfi_def_cfa_offset 8
	ret
	.cfi_endproc
.LFE11434:
	.size	_ZN26basis_set_calculations_DFTIdE22Compute_density_threadEPPdS1_jjjSt6vectorIdSaIdEES3_IiSaIiEEb, .-_ZN26basis_set_calculations_DFTIdE22Compute_density_threadEPPdS1_jjjSt6vectorIdSaIdEES3_IiSaIiEEb
	.section	.text._ZNSt6thread11_State_implINS_8_InvokerISt5tupleIJM19Huckel_calculationsIdEFdjPdjddS5_EPS4_jS5_iddS5_EEEEE6_M_runEv,"axG",@progbits,_ZNSt6thread11_State_implINS_8_InvokerISt5tupleIJM19Huckel_calculationsIdEFdjPdjddS5_EPS4_jS5_iddS5_EEEEE6_M_runEv,comdat
	.align 2
	.weak	_ZNSt6thread11_State_implINS_8_InvokerISt5tupleIJM19Huckel_calculationsIdEFdjPdjddS5_EPS4_jS5_iddS5_EEEEE6_M_runEv
	.type	_ZNSt6thread11_State_implINS_8_InvokerISt5tupleIJM19Huckel_calculationsIdEFdjPdjddS5_EPS4_jS5_iddS5_EEEEE6_M_runEv, @function
_ZNSt6thread11_State_implINS_8_InvokerISt5tupleIJM19Huckel_calculationsIdEFdjPdjddS5_EPS4_jS5_iddS5_EEEEE6_M_runEv:
.LFB15394:
	.cfi_startproc
	endbr64
	subq	$8, %rsp
	.cfi_def_cfa_offset 16
	movq	%rdi, %rax
	movq	56(%rdi), %rdi
	movq	64(%rax), %r9
	testb	$1, %r9b
	je	.L108
	movq	72(%rax), %rdx
	movq	(%rdi,%rdx), %rdx
	movq	-1(%r9,%rdx), %r9
.L108:
	movsd	24(%rax), %xmm0
	movl	32(%rax), %ecx
	movq	40(%rax), %rdx
	movl	48(%rax), %esi
	addq	72(%rax), %rdi
	movq	8(%rax), %r8
	movsd	16(%rax), %xmm1
	call	*%r9
	addq	$8, %rsp
	.cfi_def_cfa_offset 8
	ret
	.cfi_endproc
.LFE15394:
	.size	_ZNSt6thread11_State_implINS_8_InvokerISt5tupleIJM19Huckel_calculationsIdEFdjPdjddS5_EPS4_jS5_iddS5_EEEEE6_M_runEv, .-_ZNSt6thread11_State_implINS_8_InvokerISt5tupleIJM19Huckel_calculationsIdEFdjPdjddS5_EPS4_jS5_iddS5_EEEEE6_M_runEv
	.section	.text._ZNSt6thread11_State_implINS_8_InvokerISt5tupleIJM26basis_set_calculations_DFTIdEFdPdS5_S5_jS5_S5_dEPS4_S5_S5_S5_jS5_S5_dEEEEE6_M_runEv,"axG",@progbits,_ZNSt6thread11_State_implINS_8_InvokerISt5tupleIJM26basis_set_calculations_DFTIdEFdPdS5_S5_jS5_S5_dEPS4_S5_S5_S5_jS5_S5_dEEEEE6_M_runEv,comdat
	.align 2
	.weak	_ZNSt6thread11_State_implINS_8_InvokerISt5tupleIJM26basis_set_calculations_DFTIdEFdPdS5_S5_jS5_S5_dEPS4_S5_S5_S5_jS5_S5_dEEEEE6_M_runEv
	.type	_ZNSt6thread11_State_implINS_8_InvokerISt5tupleIJM26basis_set_calculations_DFTIdEFdPdS5_S5_jS5_S5_dEPS4_S5_S5_S5_jS5_S5_dEEEEE6_M_runEv, @function
_ZNSt6thread11_State_implINS_8_InvokerISt5tupleIJM26basis_set_calculations_DFTIdEFdPdS5_S5_jS5_S5_dEPS4_S5_S5_S5_jS5_S5_dEEEEE6_M_runEv:
.LFB15396:
	.cfi_startproc
	endbr64
	subq	$8, %rsp
	.cfi_def_cfa_offset 16
	movq	%rdi, %rax
	movq	64(%rdi), %rdi
	movq	72(%rax), %r10
	testb	$1, %r10b
	je	.L111
	movq	80(%rax), %rdx
	movq	(%rdi,%rdx), %rdx
	movq	-1(%r10,%rdx), %r10
.L111:
	movsd	8(%rax), %xmm0
	movq	40(%rax), %rcx
	movq	48(%rax), %rdx
	movq	56(%rax), %rsi
	addq	80(%rax), %rdi
	subq	$8, %rsp
	.cfi_def_cfa_offset 24
	pushq	16(%rax)
	.cfi_def_cfa_offset 32
	movq	24(%rax), %r9
	movl	32(%rax), %r8d
	call	*%r10
	addq	$24, %rsp
	.cfi_def_cfa_offset 8
	ret
	.cfi_endproc
.LFE15396:
	.size	_ZNSt6thread11_State_implINS_8_InvokerISt5tupleIJM26basis_set_calculations_DFTIdEFdPdS5_S5_jS5_S5_dEPS4_S5_S5_S5_jS5_S5_dEEEEE6_M_runEv, .-_ZNSt6thread11_State_implINS_8_InvokerISt5tupleIJM26basis_set_calculations_DFTIdEFdPdS5_S5_jS5_S5_dEPS4_S5_S5_S5_jS5_S5_dEEEEE6_M_runEv
	.section	.text._ZNSt6thread11_State_implINS_8_InvokerISt5tupleIJM26basis_set_calculations_DFTIdEFdPdS5_jEPS4_S5_S5_jEEEEE6_M_runEv,"axG",@progbits,_ZNSt6thread11_State_implINS_8_InvokerISt5tupleIJM26basis_set_calculations_DFTIdEFdPdS5_jEPS4_S5_S5_jEEEEE6_M_runEv,comdat
	.align 2
	.weak	_ZNSt6thread11_State_implINS_8_InvokerISt5tupleIJM26basis_set_calculations_DFTIdEFdPdS5_jEPS4_S5_S5_jEEEEE6_M_runEv
	.type	_ZNSt6thread11_State_implINS_8_InvokerISt5tupleIJM26basis_set_calculations_DFTIdEFdPdS5_jEPS4_S5_S5_jEEEEE6_M_runEv, @function
_ZNSt6thread11_State_implINS_8_InvokerISt5tupleIJM26basis_set_calculations_DFTIdEFdPdS5_jEPS4_S5_S5_jEEEEE6_M_runEv:
.LFB15397:
	.cfi_startproc
	endbr64
	subq	$8, %rsp
	.cfi_def_cfa_offset 16
	movq	%rdi, %rax
	movq	32(%rdi), %rdi
	movq	40(%rax), %r8
	testb	$1, %r8b
	je	.L114
	movq	48(%rax), %rdx
	movq	(%rdi,%rdx), %rdx
	movq	-1(%r8,%rdx), %r8
.L114:
	movl	8(%rax), %ecx
	movq	16(%rax), %rdx
	movq	24(%rax), %rsi
	addq	48(%rax), %rdi
	call	*%r8
	addq	$8, %rsp
	.cfi_def_cfa_offset 8
	ret
	.cfi_endproc
.LFE15397:
	.size	_ZNSt6thread11_State_implINS_8_InvokerISt5tupleIJM26basis_set_calculations_DFTIdEFdPdS5_jEPS4_S5_S5_jEEEEE6_M_runEv, .-_ZNSt6thread11_State_implINS_8_InvokerISt5tupleIJM26basis_set_calculations_DFTIdEFdPdS5_jEPS4_S5_S5_jEEEEE6_M_runEv
	.section	.text._ZNSt6thread11_State_implINS_8_InvokerISt5tupleIJM26basis_set_calculations_DFTIdEFdPdS5_S5_jEPS4_S5_S5_S5_jEEEEE6_M_runEv,"axG",@progbits,_ZNSt6thread11_State_implINS_8_InvokerISt5tupleIJM26basis_set_calculations_DFTIdEFdPdS5_S5_jEPS4_S5_S5_S5_jEEEEE6_M_runEv,comdat
	.align 2
	.weak	_ZNSt6thread11_State_implINS_8_InvokerISt5tupleIJM26basis_set_calculations_DFTIdEFdPdS5_S5_jEPS4_S5_S5_S5_jEEEEE6_M_runEv
	.type	_ZNSt6thread11_State_implINS_8_InvokerISt5tupleIJM26basis_set_calculations_DFTIdEFdPdS5_S5_jEPS4_S5_S5_S5_jEEEEE6_M_runEv, @function
_ZNSt6thread11_State_implINS_8_InvokerISt5tupleIJM26basis_set_calculations_DFTIdEFdPdS5_S5_jEPS4_S5_S5_S5_jEEEEE6_M_runEv:
.LFB15398:
	.cfi_startproc
	endbr64
	subq	$8, %rsp
	.cfi_def_cfa_offset 16
	movq	%rdi, %rax
	movq	40(%rdi), %rdi
	movq	48(%rax), %r9
	testb	$1, %r9b
	je	.L117
	movq	56(%rax), %rdx
	movq	(%rdi,%rdx), %rdx
	movq	-1(%r9,%rdx), %r9
.L117:
	movq	16(%rax), %rcx
	movq	24(%rax), %rdx
	movq	32(%rax), %rsi
	addq	56(%rax), %rdi
	movl	8(%rax), %r8d
	call	*%r9
	addq	$8, %rsp
	.cfi_def_cfa_offset 8
	ret
	.cfi_endproc
.LFE15398:
	.size	_ZNSt6thread11_State_implINS_8_InvokerISt5tupleIJM26basis_set_calculations_DFTIdEFdPdS5_S5_jEPS4_S5_S5_S5_jEEEEE6_M_runEv, .-_ZNSt6thread11_State_implINS_8_InvokerISt5tupleIJM26basis_set_calculations_DFTIdEFdPdS5_S5_jEPS4_S5_S5_S5_jEEEEE6_M_runEv
	.section	.text._ZNSt6thread11_State_implINS_8_InvokerISt5tupleIJM22basis_set_calculationsIdEFdPdjS5_EPS4_S5_jS5_EEEEE6_M_runEv,"axG",@progbits,_ZNSt6thread11_State_implINS_8_InvokerISt5tupleIJM22basis_set_calculationsIdEFdPdjS5_EPS4_S5_jS5_EEEEE6_M_runEv,comdat
	.align 2
	.weak	_ZNSt6thread11_State_implINS_8_InvokerISt5tupleIJM22basis_set_calculationsIdEFdPdjS5_EPS4_S5_jS5_EEEEE6_M_runEv
	.type	_ZNSt6thread11_State_implINS_8_InvokerISt5tupleIJM22basis_set_calculationsIdEFdPdjS5_EPS4_S5_jS5_EEEEE6_M_runEv, @function
_ZNSt6thread11_State_implINS_8_InvokerISt5tupleIJM22basis_set_calculationsIdEFdPdjS5_EPS4_S5_jS5_EEEEE6_M_runEv:
.LFB15400:
	.cfi_startproc
	endbr64
	subq	$8, %rsp
	.cfi_def_cfa_offset 16
	movq	%rdi, %rax
	movq	32(%rdi), %rdi
	movq	40(%rax), %r8
	testb	$1, %r8b
	je	.L120
	movq	48(%rax), %rdx
	movq	(%rdi,%rdx), %rdx
	movq	-1(%r8,%rdx), %r8
.L120:
	movq	8(%rax), %rcx
	movl	16(%rax), %edx
	movq	24(%rax), %rsi
	addq	48(%rax), %rdi
	call	*%r8
	addq	$8, %rsp
	.cfi_def_cfa_offset 8
	ret
	.cfi_endproc
.LFE15400:
	.size	_ZNSt6thread11_State_implINS_8_InvokerISt5tupleIJM22basis_set_calculationsIdEFdPdjS5_EPS4_S5_jS5_EEEEE6_M_runEv, .-_ZNSt6thread11_State_implINS_8_InvokerISt5tupleIJM22basis_set_calculationsIdEFdPdjS5_EPS4_S5_jS5_EEEEE6_M_runEv
	.section	.text._ZNSt6thread11_State_implINS_8_InvokerISt5tupleIJM22basis_set_calculationsIdEFdPdS5_jEPS4_S5_S5_jEEEEE6_M_runEv,"axG",@progbits,_ZNSt6thread11_State_implINS_8_InvokerISt5tupleIJM22basis_set_calculationsIdEFdPdS5_jEPS4_S5_S5_jEEEEE6_M_runEv,comdat
	.align 2
	.weak	_ZNSt6thread11_State_implINS_8_InvokerISt5tupleIJM22basis_set_calculationsIdEFdPdS5_jEPS4_S5_S5_jEEEEE6_M_runEv
	.type	_ZNSt6thread11_State_implINS_8_InvokerISt5tupleIJM22basis_set_calculationsIdEFdPdS5_jEPS4_S5_S5_jEEEEE6_M_runEv, @function
_ZNSt6thread11_State_implINS_8_InvokerISt5tupleIJM22basis_set_calculationsIdEFdPdS5_jEPS4_S5_S5_jEEEEE6_M_runEv:
.LFB15401:
	.cfi_startproc
	endbr64
	subq	$8, %rsp
	.cfi_def_cfa_offset 16
	movq	%rdi, %rax
	movq	32(%rdi), %rdi
	movq	40(%rax), %r8
	testb	$1, %r8b
	je	.L123
	movq	48(%rax), %rdx
	movq	(%rdi,%rdx), %rdx
	movq	-1(%r8,%rdx), %r8
.L123:
	movl	8(%rax), %ecx
	movq	16(%rax), %rdx
	movq	24(%rax), %rsi
	addq	48(%rax), %rdi
	call	*%r8
	addq	$8, %rsp
	.cfi_def_cfa_offset 8
	ret
	.cfi_endproc
.LFE15401:
	.size	_ZNSt6thread11_State_implINS_8_InvokerISt5tupleIJM22basis_set_calculationsIdEFdPdS5_jEPS4_S5_S5_jEEEEE6_M_runEv, .-_ZNSt6thread11_State_implINS_8_InvokerISt5tupleIJM22basis_set_calculationsIdEFdPdS5_jEPS4_S5_S5_jEEEEE6_M_runEv
	.section	.text._ZNSt6thread11_State_implINS_8_InvokerISt5tupleIJM22basis_set_calculationsIdEFdjjijPdS5_jdEPS4_jjijS5_S5_jdEEEEE6_M_runEv,"axG",@progbits,_ZNSt6thread11_State_implINS_8_InvokerISt5tupleIJM22basis_set_calculationsIdEFdjjijPdS5_jdEPS4_jjijS5_S5_jdEEEEE6_M_runEv,comdat
	.align 2
	.weak	_ZNSt6thread11_State_implINS_8_InvokerISt5tupleIJM22basis_set_calculationsIdEFdjjijPdS5_jdEPS4_jjijS5_S5_jdEEEEE6_M_runEv
	.type	_ZNSt6thread11_State_implINS_8_InvokerISt5tupleIJM22basis_set_calculationsIdEFdjjijPdS5_jdEPS4_jjijS5_S5_jdEEEEE6_M_runEv, @function
_ZNSt6thread11_State_implINS_8_InvokerISt5tupleIJM22basis_set_calculationsIdEFdjjijPdS5_jdEPS4_jjijS5_S5_jdEEEEE6_M_runEv:
.LFB15402:
	.cfi_startproc
	endbr64
	subq	$8, %rsp
	.cfi_def_cfa_offset 16
	movq	%rdi, %rax
	movq	56(%rdi), %rdi
	movq	64(%rax), %r10
	testb	$1, %r10b
	je	.L126
	movq	72(%rax), %rdx
	movq	(%rdi,%rdx), %rdx
	movq	-1(%r10,%rdx), %r10
.L126:
	movsd	8(%rax), %xmm0
	movl	44(%rax), %ecx
	movl	48(%rax), %edx
	movl	52(%rax), %esi
	addq	72(%rax), %rdi
	movl	16(%rax), %r8d
	pushq	%r8
	.cfi_def_cfa_offset 24
	pushq	24(%rax)
	.cfi_def_cfa_offset 32
	movq	32(%rax), %r9
	movl	40(%rax), %r8d
	call	*%r10
	addq	$24, %rsp
	.cfi_def_cfa_offset 8
	ret
	.cfi_endproc
.LFE15402:
	.size	_ZNSt6thread11_State_implINS_8_InvokerISt5tupleIJM22basis_set_calculationsIdEFdjjijPdS5_jdEPS4_jjijS5_S5_jdEEEEE6_M_runEv, .-_ZNSt6thread11_State_implINS_8_InvokerISt5tupleIJM22basis_set_calculationsIdEFdjjijPdS5_jdEPS4_jjijS5_S5_jdEEEEE6_M_runEv
	.section	.text._ZNSt6thread11_State_implINS_8_InvokerISt5tupleIJM22basis_set_calculationsIdEFdPdS5_S5_jdddEPS4_S5_S5_S5_jdddEEEEE6_M_runEv,"axG",@progbits,_ZNSt6thread11_State_implINS_8_InvokerISt5tupleIJM22basis_set_calculationsIdEFdPdS5_S5_jdddEPS4_S5_S5_S5_jdddEEEEE6_M_runEv,comdat
	.align 2
	.weak	_ZNSt6thread11_State_implINS_8_InvokerISt5tupleIJM22basis_set_calculationsIdEFdPdS5_S5_jdddEPS4_S5_S5_S5_jdddEEEEE6_M_runEv
	.type	_ZNSt6thread11_State_implINS_8_InvokerISt5tupleIJM22basis_set_calculationsIdEFdPdS5_S5_jdddEPS4_S5_S5_S5_jdddEEEEE6_M_runEv, @function
_ZNSt6thread11_State_implINS_8_InvokerISt5tupleIJM22basis_set_calculationsIdEFdPdS5_S5_jdddEPS4_S5_S5_S5_jdddEEEEE6_M_runEv:
.LFB15403:
	.cfi_startproc
	endbr64
	subq	$8, %rsp
	.cfi_def_cfa_offset 16
	movq	%rdi, %rax
	movq	64(%rdi), %rdi
	movq	72(%rax), %r9
	testb	$1, %r9b
	je	.L129
	movq	80(%rax), %rdx
	movq	(%rdi,%rdx), %rdx
	movq	-1(%r9,%rdx), %r9
.L129:
	movsd	24(%rax), %xmm0
	movq	40(%rax), %rcx
	movq	48(%rax), %rdx
	movq	56(%rax), %rsi
	addq	80(%rax), %rdi
	movsd	8(%rax), %xmm2
	movsd	16(%rax), %xmm1
	movl	32(%rax), %r8d
	call	*%r9
	addq	$8, %rsp
	.cfi_def_cfa_offset 8
	ret
	.cfi_endproc
.LFE15403:
	.size	_ZNSt6thread11_State_implINS_8_InvokerISt5tupleIJM22basis_set_calculationsIdEFdPdS5_S5_jdddEPS4_S5_S5_S5_jdddEEEEE6_M_runEv, .-_ZNSt6thread11_State_implINS_8_InvokerISt5tupleIJM22basis_set_calculationsIdEFdPdS5_S5_jdddEPS4_S5_S5_S5_jdddEEEEE6_M_runEv
	.section	.text._ZNSt6thread11_State_implINS_8_InvokerISt5tupleIJM22basis_set_calculationsIdEFdPdS5_S5_jdddEPS4_S5_S5_S5_ddddEEEEE6_M_runEv,"axG",@progbits,_ZNSt6thread11_State_implINS_8_InvokerISt5tupleIJM22basis_set_calculationsIdEFdPdS5_S5_jdddEPS4_S5_S5_S5_ddddEEEEE6_M_runEv,comdat
	.align 2
	.weak	_ZNSt6thread11_State_implINS_8_InvokerISt5tupleIJM22basis_set_calculationsIdEFdPdS5_S5_jdddEPS4_S5_S5_S5_ddddEEEEE6_M_runEv
	.type	_ZNSt6thread11_State_implINS_8_InvokerISt5tupleIJM22basis_set_calculationsIdEFdPdS5_S5_jdddEPS4_S5_S5_S5_ddddEEEEE6_M_runEv, @function
_ZNSt6thread11_State_implINS_8_InvokerISt5tupleIJM22basis_set_calculationsIdEFdPdS5_S5_jdddEPS4_S5_S5_S5_ddddEEEEE6_M_runEv:
.LFB15404:
	.cfi_startproc
	endbr64
	subq	$8, %rsp
	.cfi_def_cfa_offset 16
	movq	%rdi, %rax
	movq	64(%rdi), %rdi
	movq	72(%rax), %r9
	testb	$1, %r9b
	je	.L132
	movq	80(%rax), %rdx
	movq	(%rdi,%rdx), %rdx
	movq	-1(%r9,%rdx), %r9
.L132:
	movsd	24(%rax), %xmm0
	movq	40(%rax), %rcx
	movq	48(%rax), %rdx
	movq	56(%rax), %rsi
	addq	80(%rax), %rdi
	movsd	8(%rax), %xmm2
	movsd	16(%rax), %xmm1
	cvttsd2siq	32(%rax), %r8
	call	*%r9
	addq	$8, %rsp
	.cfi_def_cfa_offset 8
	ret
	.cfi_endproc
.LFE15404:
	.size	_ZNSt6thread11_State_implINS_8_InvokerISt5tupleIJM22basis_set_calculationsIdEFdPdS5_S5_jdddEPS4_S5_S5_S5_ddddEEEEE6_M_runEv, .-_ZNSt6thread11_State_implINS_8_InvokerISt5tupleIJM22basis_set_calculationsIdEFdPdS5_S5_jdddEPS4_S5_S5_S5_ddddEEEEE6_M_runEv
	.section	.text._ZNSt6thread11_State_implINS_8_InvokerISt5tupleIJM22basis_set_calculationsIdEFdPdS5_S5_jdddjEPS4_S5_S5_S5_jdddjEEEEE6_M_runEv,"axG",@progbits,_ZNSt6thread11_State_implINS_8_InvokerISt5tupleIJM22basis_set_calculationsIdEFdPdS5_S5_jdddjEPS4_S5_S5_S5_jdddjEEEEE6_M_runEv,comdat
	.align 2
	.weak	_ZNSt6thread11_State_implINS_8_InvokerISt5tupleIJM22basis_set_calculationsIdEFdPdS5_S5_jdddjEPS4_S5_S5_S5_jdddjEEEEE6_M_runEv
	.type	_ZNSt6thread11_State_implINS_8_InvokerISt5tupleIJM22basis_set_calculationsIdEFdPdS5_S5_jdddjEPS4_S5_S5_S5_jdddjEEEEE6_M_runEv, @function
_ZNSt6thread11_State_implINS_8_InvokerISt5tupleIJM22basis_set_calculationsIdEFdPdS5_S5_jdddjEPS4_S5_S5_S5_jdddjEEEEE6_M_runEv:
.LFB15405:
	.cfi_startproc
	endbr64
	subq	$8, %rsp
	.cfi_def_cfa_offset 16
	movq	%rdi, %rax
	movq	72(%rdi), %rdi
	movq	80(%rax), %r10
	testb	$1, %r10b
	je	.L135
	movq	88(%rax), %rdx
	movq	(%rdi,%rdx), %rdx
	movq	-1(%r10,%rdx), %r10
.L135:
	movsd	32(%rax), %xmm0
	movq	48(%rax), %rcx
	movq	56(%rax), %rdx
	movq	64(%rax), %rsi
	addq	88(%rax), %rdi
	movl	8(%rax), %r9d
	movsd	16(%rax), %xmm2
	movsd	24(%rax), %xmm1
	movl	40(%rax), %r8d
	call	*%r10
	addq	$8, %rsp
	.cfi_def_cfa_offset 8
	ret
	.cfi_endproc
.LFE15405:
	.size	_ZNSt6thread11_State_implINS_8_InvokerISt5tupleIJM22basis_set_calculationsIdEFdPdS5_S5_jdddjEPS4_S5_S5_S5_jdddjEEEEE6_M_runEv, .-_ZNSt6thread11_State_implINS_8_InvokerISt5tupleIJM22basis_set_calculationsIdEFdPdS5_S5_jdddjEPS4_S5_S5_S5_jdddjEEEEE6_M_runEv
	.section	.text._ZNSt6thread11_State_implINS_8_InvokerISt5tupleIJM22basis_set_calculationsIdEFdjPdjddS5_EPS4_jS5_jddS5_EEEEE6_M_runEv,"axG",@progbits,_ZNSt6thread11_State_implINS_8_InvokerISt5tupleIJM22basis_set_calculationsIdEFdjPdjddS5_EPS4_jS5_jddS5_EEEEE6_M_runEv,comdat
	.align 2
	.weak	_ZNSt6thread11_State_implINS_8_InvokerISt5tupleIJM22basis_set_calculationsIdEFdjPdjddS5_EPS4_jS5_jddS5_EEEEE6_M_runEv
	.type	_ZNSt6thread11_State_implINS_8_InvokerISt5tupleIJM22basis_set_calculationsIdEFdjPdjddS5_EPS4_jS5_jddS5_EEEEE6_M_runEv, @function
_ZNSt6thread11_State_implINS_8_InvokerISt5tupleIJM22basis_set_calculationsIdEFdjPdjddS5_EPS4_jS5_jddS5_EEEEE6_M_runEv:
.LFB15406:
	.cfi_startproc
	endbr64
	subq	$8, %rsp
	.cfi_def_cfa_offset 16
	movq	%rdi, %rax
	movq	56(%rdi), %rdi
	movq	64(%rax), %r9
	testb	$1, %r9b
	je	.L138
	movq	72(%rax), %rdx
	movq	(%rdi,%rdx), %rdx
	movq	-1(%r9,%rdx), %r9
.L138:
	movsd	24(%rax), %xmm0
	movl	32(%rax), %ecx
	movq	40(%rax), %rdx
	movl	48(%rax), %esi
	addq	72(%rax), %rdi
	movq	8(%rax), %r8
	movsd	16(%rax), %xmm1
	call	*%r9
	addq	$8, %rsp
	.cfi_def_cfa_offset 8
	ret
	.cfi_endproc
.LFE15406:
	.size	_ZNSt6thread11_State_implINS_8_InvokerISt5tupleIJM22basis_set_calculationsIdEFdjPdjddS5_EPS4_jS5_jddS5_EEEEE6_M_runEv, .-_ZNSt6thread11_State_implINS_8_InvokerISt5tupleIJM22basis_set_calculationsIdEFdjPdjddS5_EPS4_jS5_jddS5_EEEEE6_M_runEv
	.section	.text._ZNSt6thread11_State_implINS_8_InvokerISt5tupleIJM22basis_set_calculationsIdEFdjPdjddS5_EPS4_jS5_jddS5_EEEEED2Ev,"axG",@progbits,_ZNSt6thread11_State_implINS_8_InvokerISt5tupleIJM22basis_set_calculationsIdEFdjPdjddS5_EPS4_jS5_jddS5_EEEEED5Ev,comdat
	.align 2
	.weak	_ZNSt6thread11_State_implINS_8_InvokerISt5tupleIJM22basis_set_calculationsIdEFdjPdjddS5_EPS4_jS5_jddS5_EEEEED2Ev
	.type	_ZNSt6thread11_State_implINS_8_InvokerISt5tupleIJM22basis_set_calculationsIdEFdjPdjddS5_EPS4_jS5_jddS5_EEEEED2Ev, @function
_ZNSt6thread11_State_implINS_8_InvokerISt5tupleIJM22basis_set_calculationsIdEFdjPdjddS5_EPS4_jS5_jddS5_EEEEED2Ev:
.LFB15373:
	.cfi_startproc
	endbr64
	subq	$8, %rsp
	.cfi_def_cfa_offset 16
	leaq	16+_ZTVNSt6thread11_State_implINS_8_InvokerISt5tupleIJM22basis_set_calculationsIdEFdjPdjddS5_EPS4_jS5_jddS5_EEEEEE(%rip), %rax
	movq	%rax, (%rdi)
	call	_ZNSt6thread6_StateD2Ev@PLT
	addq	$8, %rsp
	.cfi_def_cfa_offset 8
	ret
	.cfi_endproc
.LFE15373:
	.size	_ZNSt6thread11_State_implINS_8_InvokerISt5tupleIJM22basis_set_calculationsIdEFdjPdjddS5_EPS4_jS5_jddS5_EEEEED2Ev, .-_ZNSt6thread11_State_implINS_8_InvokerISt5tupleIJM22basis_set_calculationsIdEFdjPdjddS5_EPS4_jS5_jddS5_EEEEED2Ev
	.weak	_ZNSt6thread11_State_implINS_8_InvokerISt5tupleIJM22basis_set_calculationsIdEFdjPdjddS5_EPS4_jS5_jddS5_EEEEED1Ev
	.set	_ZNSt6thread11_State_implINS_8_InvokerISt5tupleIJM22basis_set_calculationsIdEFdjPdjddS5_EPS4_jS5_jddS5_EEEEED1Ev,_ZNSt6thread11_State_implINS_8_InvokerISt5tupleIJM22basis_set_calculationsIdEFdjPdjddS5_EPS4_jS5_jddS5_EEEEED2Ev
	.section	.text._ZNSt6thread11_State_implINS_8_InvokerISt5tupleIJM22basis_set_calculationsIdEFdjPdjddS5_EPS4_jS5_jddS5_EEEEED0Ev,"axG",@progbits,_ZNSt6thread11_State_implINS_8_InvokerISt5tupleIJM22basis_set_calculationsIdEFdjPdjddS5_EPS4_jS5_jddS5_EEEEED5Ev,comdat
	.align 2
	.weak	_ZNSt6thread11_State_implINS_8_InvokerISt5tupleIJM22basis_set_calculationsIdEFdjPdjddS5_EPS4_jS5_jddS5_EEEEED0Ev
	.type	_ZNSt6thread11_State_implINS_8_InvokerISt5tupleIJM22basis_set_calculationsIdEFdjPdjddS5_EPS4_jS5_jddS5_EEEEED0Ev, @function
_ZNSt6thread11_State_implINS_8_InvokerISt5tupleIJM22basis_set_calculationsIdEFdjPdjddS5_EPS4_jS5_jddS5_EEEEED0Ev:
.LFB15375:
	.cfi_startproc
	endbr64
	pushq	%rbx
	.cfi_def_cfa_offset 16
	.cfi_offset 3, -16
	movq	%rdi, %rbx
	leaq	16+_ZTVNSt6thread11_State_implINS_8_InvokerISt5tupleIJM22basis_set_calculationsIdEFdjPdjddS5_EPS4_jS5_jddS5_EEEEEE(%rip), %rax
	movq	%rax, (%rdi)
	call	_ZNSt6thread6_StateD2Ev@PLT
	movl	$80, %esi
	movq	%rbx, %rdi
	call	_ZdlPvm@PLT
	popq	%rbx
	.cfi_def_cfa_offset 8
	ret
	.cfi_endproc
.LFE15375:
	.size	_ZNSt6thread11_State_implINS_8_InvokerISt5tupleIJM22basis_set_calculationsIdEFdjPdjddS5_EPS4_jS5_jddS5_EEEEED0Ev, .-_ZNSt6thread11_State_implINS_8_InvokerISt5tupleIJM22basis_set_calculationsIdEFdjPdjddS5_EPS4_jS5_jddS5_EEEEED0Ev
	.section	.text._ZNSt6thread11_State_implINS_8_InvokerISt5tupleIJM22basis_set_calculationsIdEFdPdS5_S5_jdddjEPS4_S5_S5_S5_jdddjEEEEED2Ev,"axG",@progbits,_ZNSt6thread11_State_implINS_8_InvokerISt5tupleIJM22basis_set_calculationsIdEFdPdS5_S5_jdddjEPS4_S5_S5_S5_jdddjEEEEED5Ev,comdat
	.align 2
	.weak	_ZNSt6thread11_State_implINS_8_InvokerISt5tupleIJM22basis_set_calculationsIdEFdPdS5_S5_jdddjEPS4_S5_S5_S5_jdddjEEEEED2Ev
	.type	_ZNSt6thread11_State_implINS_8_InvokerISt5tupleIJM22basis_set_calculationsIdEFdPdS5_S5_jdddjEPS4_S5_S5_S5_jdddjEEEEED2Ev, @function
_ZNSt6thread11_State_implINS_8_InvokerISt5tupleIJM22basis_set_calculationsIdEFdPdS5_S5_jdddjEPS4_S5_S5_S5_jdddjEEEEED2Ev:
.LFB15369:
	.cfi_startproc
	endbr64
	subq	$8, %rsp
	.cfi_def_cfa_offset 16
	leaq	16+_ZTVNSt6thread11_State_implINS_8_InvokerISt5tupleIJM22basis_set_calculationsIdEFdPdS5_S5_jdddjEPS4_S5_S5_S5_jdddjEEEEEE(%rip), %rax
	movq	%rax, (%rdi)
	call	_ZNSt6thread6_StateD2Ev@PLT
	addq	$8, %rsp
	.cfi_def_cfa_offset 8
	ret
	.cfi_endproc
.LFE15369:
	.size	_ZNSt6thread11_State_implINS_8_InvokerISt5tupleIJM22basis_set_calculationsIdEFdPdS5_S5_jdddjEPS4_S5_S5_S5_jdddjEEEEED2Ev, .-_ZNSt6thread11_State_implINS_8_InvokerISt5tupleIJM22basis_set_calculationsIdEFdPdS5_S5_jdddjEPS4_S5_S5_S5_jdddjEEEEED2Ev
	.weak	_ZNSt6thread11_State_implINS_8_InvokerISt5tupleIJM22basis_set_calculationsIdEFdPdS5_S5_jdddjEPS4_S5_S5_S5_jdddjEEEEED1Ev
	.set	_ZNSt6thread11_State_implINS_8_InvokerISt5tupleIJM22basis_set_calculationsIdEFdPdS5_S5_jdddjEPS4_S5_S5_S5_jdddjEEEEED1Ev,_ZNSt6thread11_State_implINS_8_InvokerISt5tupleIJM22basis_set_calculationsIdEFdPdS5_S5_jdddjEPS4_S5_S5_S5_jdddjEEEEED2Ev
	.section	.text._ZNSt6thread11_State_implINS_8_InvokerISt5tupleIJM22basis_set_calculationsIdEFdPdS5_S5_jdddjEPS4_S5_S5_S5_jdddjEEEEED0Ev,"axG",@progbits,_ZNSt6thread11_State_implINS_8_InvokerISt5tupleIJM22basis_set_calculationsIdEFdPdS5_S5_jdddjEPS4_S5_S5_S5_jdddjEEEEED5Ev,comdat
	.align 2
	.weak	_ZNSt6thread11_State_implINS_8_InvokerISt5tupleIJM22basis_set_calculationsIdEFdPdS5_S5_jdddjEPS4_S5_S5_S5_jdddjEEEEED0Ev
	.type	_ZNSt6thread11_State_implINS_8_InvokerISt5tupleIJM22basis_set_calculationsIdEFdPdS5_S5_jdddjEPS4_S5_S5_S5_jdddjEEEEED0Ev, @function
_ZNSt6thread11_State_implINS_8_InvokerISt5tupleIJM22basis_set_calculationsIdEFdPdS5_S5_jdddjEPS4_S5_S5_S5_jdddjEEEEED0Ev:
.LFB15371:
	.cfi_startproc
	endbr64
	pushq	%rbx
	.cfi_def_cfa_offset 16
	.cfi_offset 3, -16
	movq	%rdi, %rbx
	leaq	16+_ZTVNSt6thread11_State_implINS_8_InvokerISt5tupleIJM22basis_set_calculationsIdEFdPdS5_S5_jdddjEPS4_S5_S5_S5_jdddjEEEEEE(%rip), %rax
	movq	%rax, (%rdi)
	call	_ZNSt6thread6_StateD2Ev@PLT
	movl	$96, %esi
	movq	%rbx, %rdi
	call	_ZdlPvm@PLT
	popq	%rbx
	.cfi_def_cfa_offset 8
	ret
	.cfi_endproc
.LFE15371:
	.size	_ZNSt6thread11_State_implINS_8_InvokerISt5tupleIJM22basis_set_calculationsIdEFdPdS5_S5_jdddjEPS4_S5_S5_S5_jdddjEEEEED0Ev, .-_ZNSt6thread11_State_implINS_8_InvokerISt5tupleIJM22basis_set_calculationsIdEFdPdS5_S5_jdddjEPS4_S5_S5_S5_jdddjEEEEED0Ev
	.section	.text._ZNSt6thread11_State_implINS_8_InvokerISt5tupleIJM22basis_set_calculationsIdEFdPdS5_S5_jdddEPS4_S5_S5_S5_ddddEEEEED2Ev,"axG",@progbits,_ZNSt6thread11_State_implINS_8_InvokerISt5tupleIJM22basis_set_calculationsIdEFdPdS5_S5_jdddEPS4_S5_S5_S5_ddddEEEEED5Ev,comdat
	.align 2
	.weak	_ZNSt6thread11_State_implINS_8_InvokerISt5tupleIJM22basis_set_calculationsIdEFdPdS5_S5_jdddEPS4_S5_S5_S5_ddddEEEEED2Ev
	.type	_ZNSt6thread11_State_implINS_8_InvokerISt5tupleIJM22basis_set_calculationsIdEFdPdS5_S5_jdddEPS4_S5_S5_S5_ddddEEEEED2Ev, @function
_ZNSt6thread11_State_implINS_8_InvokerISt5tupleIJM22basis_set_calculationsIdEFdPdS5_S5_jdddEPS4_S5_S5_S5_ddddEEEEED2Ev:
.LFB15365:
	.cfi_startproc
	endbr64
	subq	$8, %rsp
	.cfi_def_cfa_offset 16
	leaq	16+_ZTVNSt6thread11_State_implINS_8_InvokerISt5tupleIJM22basis_set_calculationsIdEFdPdS5_S5_jdddEPS4_S5_S5_S5_ddddEEEEEE(%rip), %rax
	movq	%rax, (%rdi)
	call	_ZNSt6thread6_StateD2Ev@PLT
	addq	$8, %rsp
	.cfi_def_cfa_offset 8
	ret
	.cfi_endproc
.LFE15365:
	.size	_ZNSt6thread11_State_implINS_8_InvokerISt5tupleIJM22basis_set_calculationsIdEFdPdS5_S5_jdddEPS4_S5_S5_S5_ddddEEEEED2Ev, .-_ZNSt6thread11_State_implINS_8_InvokerISt5tupleIJM22basis_set_calculationsIdEFdPdS5_S5_jdddEPS4_S5_S5_S5_ddddEEEEED2Ev
	.weak	_ZNSt6thread11_State_implINS_8_InvokerISt5tupleIJM22basis_set_calculationsIdEFdPdS5_S5_jdddEPS4_S5_S5_S5_ddddEEEEED1Ev
	.set	_ZNSt6thread11_State_implINS_8_InvokerISt5tupleIJM22basis_set_calculationsIdEFdPdS5_S5_jdddEPS4_S5_S5_S5_ddddEEEEED1Ev,_ZNSt6thread11_State_implINS_8_InvokerISt5tupleIJM22basis_set_calculationsIdEFdPdS5_S5_jdddEPS4_S5_S5_S5_ddddEEEEED2Ev
	.section	.text._ZNSt6thread11_State_implINS_8_InvokerISt5tupleIJM22basis_set_calculationsIdEFdPdS5_S5_jdddEPS4_S5_S5_S5_ddddEEEEED0Ev,"axG",@progbits,_ZNSt6thread11_State_implINS_8_InvokerISt5tupleIJM22basis_set_calculationsIdEFdPdS5_S5_jdddEPS4_S5_S5_S5_ddddEEEEED5Ev,comdat
	.align 2
	.weak	_ZNSt6thread11_State_implINS_8_InvokerISt5tupleIJM22basis_set_calculationsIdEFdPdS5_S5_jdddEPS4_S5_S5_S5_ddddEEEEED0Ev
	.type	_ZNSt6thread11_State_implINS_8_InvokerISt5tupleIJM22basis_set_calculationsIdEFdPdS5_S5_jdddEPS4_S5_S5_S5_ddddEEEEED0Ev, @function
_ZNSt6thread11_State_implINS_8_InvokerISt5tupleIJM22basis_set_calculationsIdEFdPdS5_S5_jdddEPS4_S5_S5_S5_ddddEEEEED0Ev:
.LFB15367:
	.cfi_startproc
	endbr64
	pushq	%rbx
	.cfi_def_cfa_offset 16
	.cfi_offset 3, -16
	movq	%rdi, %rbx
	leaq	16+_ZTVNSt6thread11_State_implINS_8_InvokerISt5tupleIJM22basis_set_calculationsIdEFdPdS5_S5_jdddEPS4_S5_S5_S5_ddddEEEEEE(%rip), %rax
	movq	%rax, (%rdi)
	call	_ZNSt6thread6_StateD2Ev@PLT
	movl	$88, %esi
	movq	%rbx, %rdi
	call	_ZdlPvm@PLT
	popq	%rbx
	.cfi_def_cfa_offset 8
	ret
	.cfi_endproc
.LFE15367:
	.size	_ZNSt6thread11_State_implINS_8_InvokerISt5tupleIJM22basis_set_calculationsIdEFdPdS5_S5_jdddEPS4_S5_S5_S5_ddddEEEEED0Ev, .-_ZNSt6thread11_State_implINS_8_InvokerISt5tupleIJM22basis_set_calculationsIdEFdPdS5_S5_jdddEPS4_S5_S5_S5_ddddEEEEED0Ev
	.section	.text._ZNSt6thread11_State_implINS_8_InvokerISt5tupleIJM22basis_set_calculationsIdEFdPdS5_S5_jdddEPS4_S5_S5_S5_jdddEEEEED2Ev,"axG",@progbits,_ZNSt6thread11_State_implINS_8_InvokerISt5tupleIJM22basis_set_calculationsIdEFdPdS5_S5_jdddEPS4_S5_S5_S5_jdddEEEEED5Ev,comdat
	.align 2
	.weak	_ZNSt6thread11_State_implINS_8_InvokerISt5tupleIJM22basis_set_calculationsIdEFdPdS5_S5_jdddEPS4_S5_S5_S5_jdddEEEEED2Ev
	.type	_ZNSt6thread11_State_implINS_8_InvokerISt5tupleIJM22basis_set_calculationsIdEFdPdS5_S5_jdddEPS4_S5_S5_S5_jdddEEEEED2Ev, @function
_ZNSt6thread11_State_implINS_8_InvokerISt5tupleIJM22basis_set_calculationsIdEFdPdS5_S5_jdddEPS4_S5_S5_S5_jdddEEEEED2Ev:
.LFB15361:
	.cfi_startproc
	endbr64
	subq	$8, %rsp
	.cfi_def_cfa_offset 16
	leaq	16+_ZTVNSt6thread11_State_implINS_8_InvokerISt5tupleIJM22basis_set_calculationsIdEFdPdS5_S5_jdddEPS4_S5_S5_S5_jdddEEEEEE(%rip), %rax
	movq	%rax, (%rdi)
	call	_ZNSt6thread6_StateD2Ev@PLT
	addq	$8, %rsp
	.cfi_def_cfa_offset 8
	ret
	.cfi_endproc
.LFE15361:
	.size	_ZNSt6thread11_State_implINS_8_InvokerISt5tupleIJM22basis_set_calculationsIdEFdPdS5_S5_jdddEPS4_S5_S5_S5_jdddEEEEED2Ev, .-_ZNSt6thread11_State_implINS_8_InvokerISt5tupleIJM22basis_set_calculationsIdEFdPdS5_S5_jdddEPS4_S5_S5_S5_jdddEEEEED2Ev
	.weak	_ZNSt6thread11_State_implINS_8_InvokerISt5tupleIJM22basis_set_calculationsIdEFdPdS5_S5_jdddEPS4_S5_S5_S5_jdddEEEEED1Ev
	.set	_ZNSt6thread11_State_implINS_8_InvokerISt5tupleIJM22basis_set_calculationsIdEFdPdS5_S5_jdddEPS4_S5_S5_S5_jdddEEEEED1Ev,_ZNSt6thread11_State_implINS_8_InvokerISt5tupleIJM22basis_set_calculationsIdEFdPdS5_S5_jdddEPS4_S5_S5_S5_jdddEEEEED2Ev
	.section	.text._ZNSt6thread11_State_implINS_8_InvokerISt5tupleIJM22basis_set_calculationsIdEFdPdS5_S5_jdddEPS4_S5_S5_S5_jdddEEEEED0Ev,"axG",@progbits,_ZNSt6thread11_State_implINS_8_InvokerISt5tupleIJM22basis_set_calculationsIdEFdPdS5_S5_jdddEPS4_S5_S5_S5_jdddEEEEED5Ev,comdat
	.align 2
	.weak	_ZNSt6thread11_State_implINS_8_InvokerISt5tupleIJM22basis_set_calculationsIdEFdPdS5_S5_jdddEPS4_S5_S5_S5_jdddEEEEED0Ev
	.type	_ZNSt6thread11_State_implINS_8_InvokerISt5tupleIJM22basis_set_calculationsIdEFdPdS5_S5_jdddEPS4_S5_S5_S5_jdddEEEEED0Ev, @function
_ZNSt6thread11_State_implINS_8_InvokerISt5tupleIJM22basis_set_calculationsIdEFdPdS5_S5_jdddEPS4_S5_S5_S5_jdddEEEEED0Ev:
.LFB15363:
	.cfi_startproc
	endbr64
	pushq	%rbx
	.cfi_def_cfa_offset 16
	.cfi_offset 3, -16
	movq	%rdi, %rbx
	leaq	16+_ZTVNSt6thread11_State_implINS_8_InvokerISt5tupleIJM22basis_set_calculationsIdEFdPdS5_S5_jdddEPS4_S5_S5_S5_jdddEEEEEE(%rip), %rax
	movq	%rax, (%rdi)
	call	_ZNSt6thread6_StateD2Ev@PLT
	movl	$88, %esi
	movq	%rbx, %rdi
	call	_ZdlPvm@PLT
	popq	%rbx
	.cfi_def_cfa_offset 8
	ret
	.cfi_endproc
.LFE15363:
	.size	_ZNSt6thread11_State_implINS_8_InvokerISt5tupleIJM22basis_set_calculationsIdEFdPdS5_S5_jdddEPS4_S5_S5_S5_jdddEEEEED0Ev, .-_ZNSt6thread11_State_implINS_8_InvokerISt5tupleIJM22basis_set_calculationsIdEFdPdS5_S5_jdddEPS4_S5_S5_S5_jdddEEEEED0Ev
	.section	.text._ZNSt6thread11_State_implINS_8_InvokerISt5tupleIJM22basis_set_calculationsIdEFdjjijPdS5_jdEPS4_jjijS5_S5_jdEEEEED2Ev,"axG",@progbits,_ZNSt6thread11_State_implINS_8_InvokerISt5tupleIJM22basis_set_calculationsIdEFdjjijPdS5_jdEPS4_jjijS5_S5_jdEEEEED5Ev,comdat
	.align 2
	.weak	_ZNSt6thread11_State_implINS_8_InvokerISt5tupleIJM22basis_set_calculationsIdEFdjjijPdS5_jdEPS4_jjijS5_S5_jdEEEEED2Ev
	.type	_ZNSt6thread11_State_implINS_8_InvokerISt5tupleIJM22basis_set_calculationsIdEFdjjijPdS5_jdEPS4_jjijS5_S5_jdEEEEED2Ev, @function
_ZNSt6thread11_State_implINS_8_InvokerISt5tupleIJM22basis_set_calculationsIdEFdjjijPdS5_jdEPS4_jjijS5_S5_jdEEEEED2Ev:
.LFB15357:
	.cfi_startproc
	endbr64
	subq	$8, %rsp
	.cfi_def_cfa_offset 16
	leaq	16+_ZTVNSt6thread11_State_implINS_8_InvokerISt5tupleIJM22basis_set_calculationsIdEFdjjijPdS5_jdEPS4_jjijS5_S5_jdEEEEEE(%rip), %rax
	movq	%rax, (%rdi)
	call	_ZNSt6thread6_StateD2Ev@PLT
	addq	$8, %rsp
	.cfi_def_cfa_offset 8
	ret
	.cfi_endproc
.LFE15357:
	.size	_ZNSt6thread11_State_implINS_8_InvokerISt5tupleIJM22basis_set_calculationsIdEFdjjijPdS5_jdEPS4_jjijS5_S5_jdEEEEED2Ev, .-_ZNSt6thread11_State_implINS_8_InvokerISt5tupleIJM22basis_set_calculationsIdEFdjjijPdS5_jdEPS4_jjijS5_S5_jdEEEEED2Ev
	.weak	_ZNSt6thread11_State_implINS_8_InvokerISt5tupleIJM22basis_set_calculationsIdEFdjjijPdS5_jdEPS4_jjijS5_S5_jdEEEEED1Ev
	.set	_ZNSt6thread11_State_implINS_8_InvokerISt5tupleIJM22basis_set_calculationsIdEFdjjijPdS5_jdEPS4_jjijS5_S5_jdEEEEED1Ev,_ZNSt6thread11_State_implINS_8_InvokerISt5tupleIJM22basis_set_calculationsIdEFdjjijPdS5_jdEPS4_jjijS5_S5_jdEEEEED2Ev
	.section	.text._ZNSt6thread11_State_implINS_8_InvokerISt5tupleIJM22basis_set_calculationsIdEFdjjijPdS5_jdEPS4_jjijS5_S5_jdEEEEED0Ev,"axG",@progbits,_ZNSt6thread11_State_implINS_8_InvokerISt5tupleIJM22basis_set_calculationsIdEFdjjijPdS5_jdEPS4_jjijS5_S5_jdEEEEED5Ev,comdat
	.align 2
	.weak	_ZNSt6thread11_State_implINS_8_InvokerISt5tupleIJM22basis_set_calculationsIdEFdjjijPdS5_jdEPS4_jjijS5_S5_jdEEEEED0Ev
	.type	_ZNSt6thread11_State_implINS_8_InvokerISt5tupleIJM22basis_set_calculationsIdEFdjjijPdS5_jdEPS4_jjijS5_S5_jdEEEEED0Ev, @function
_ZNSt6thread11_State_implINS_8_InvokerISt5tupleIJM22basis_set_calculationsIdEFdjjijPdS5_jdEPS4_jjijS5_S5_jdEEEEED0Ev:
.LFB15359:
	.cfi_startproc
	endbr64
	pushq	%rbx
	.cfi_def_cfa_offset 16
	.cfi_offset 3, -16
	movq	%rdi, %rbx
	leaq	16+_ZTVNSt6thread11_State_implINS_8_InvokerISt5tupleIJM22basis_set_calculationsIdEFdjjijPdS5_jdEPS4_jjijS5_S5_jdEEEEEE(%rip), %rax
	movq	%rax, (%rdi)
	call	_ZNSt6thread6_StateD2Ev@PLT
	movl	$80, %esi
	movq	%rbx, %rdi
	call	_ZdlPvm@PLT
	popq	%rbx
	.cfi_def_cfa_offset 8
	ret
	.cfi_endproc
.LFE15359:
	.size	_ZNSt6thread11_State_implINS_8_InvokerISt5tupleIJM22basis_set_calculationsIdEFdjjijPdS5_jdEPS4_jjijS5_S5_jdEEEEED0Ev, .-_ZNSt6thread11_State_implINS_8_InvokerISt5tupleIJM22basis_set_calculationsIdEFdjjijPdS5_jdEPS4_jjijS5_S5_jdEEEEED0Ev
	.section	.text._ZNSt6thread11_State_implINS_8_InvokerISt5tupleIJM22basis_set_calculationsIdEFdPdjS5_EPS4_S5_jS5_EEEEED2Ev,"axG",@progbits,_ZNSt6thread11_State_implINS_8_InvokerISt5tupleIJM22basis_set_calculationsIdEFdPdjS5_EPS4_S5_jS5_EEEEED5Ev,comdat
	.align 2
	.weak	_ZNSt6thread11_State_implINS_8_InvokerISt5tupleIJM22basis_set_calculationsIdEFdPdjS5_EPS4_S5_jS5_EEEEED2Ev
	.type	_ZNSt6thread11_State_implINS_8_InvokerISt5tupleIJM22basis_set_calculationsIdEFdPdjS5_EPS4_S5_jS5_EEEEED2Ev, @function
_ZNSt6thread11_State_implINS_8_InvokerISt5tupleIJM22basis_set_calculationsIdEFdPdjS5_EPS4_S5_jS5_EEEEED2Ev:
.LFB15349:
	.cfi_startproc
	endbr64
	subq	$8, %rsp
	.cfi_def_cfa_offset 16
	leaq	16+_ZTVNSt6thread11_State_implINS_8_InvokerISt5tupleIJM22basis_set_calculationsIdEFdPdjS5_EPS4_S5_jS5_EEEEEE(%rip), %rax
	movq	%rax, (%rdi)
	call	_ZNSt6thread6_StateD2Ev@PLT
	addq	$8, %rsp
	.cfi_def_cfa_offset 8
	ret
	.cfi_endproc
.LFE15349:
	.size	_ZNSt6thread11_State_implINS_8_InvokerISt5tupleIJM22basis_set_calculationsIdEFdPdjS5_EPS4_S5_jS5_EEEEED2Ev, .-_ZNSt6thread11_State_implINS_8_InvokerISt5tupleIJM22basis_set_calculationsIdEFdPdjS5_EPS4_S5_jS5_EEEEED2Ev
	.weak	_ZNSt6thread11_State_implINS_8_InvokerISt5tupleIJM22basis_set_calculationsIdEFdPdjS5_EPS4_S5_jS5_EEEEED1Ev
	.set	_ZNSt6thread11_State_implINS_8_InvokerISt5tupleIJM22basis_set_calculationsIdEFdPdjS5_EPS4_S5_jS5_EEEEED1Ev,_ZNSt6thread11_State_implINS_8_InvokerISt5tupleIJM22basis_set_calculationsIdEFdPdjS5_EPS4_S5_jS5_EEEEED2Ev
	.section	.text._ZNSt6thread11_State_implINS_8_InvokerISt5tupleIJM22basis_set_calculationsIdEFdPdjS5_EPS4_S5_jS5_EEEEED0Ev,"axG",@progbits,_ZNSt6thread11_State_implINS_8_InvokerISt5tupleIJM22basis_set_calculationsIdEFdPdjS5_EPS4_S5_jS5_EEEEED5Ev,comdat
	.align 2
	.weak	_ZNSt6thread11_State_implINS_8_InvokerISt5tupleIJM22basis_set_calculationsIdEFdPdjS5_EPS4_S5_jS5_EEEEED0Ev
	.type	_ZNSt6thread11_State_implINS_8_InvokerISt5tupleIJM22basis_set_calculationsIdEFdPdjS5_EPS4_S5_jS5_EEEEED0Ev, @function
_ZNSt6thread11_State_implINS_8_InvokerISt5tupleIJM22basis_set_calculationsIdEFdPdjS5_EPS4_S5_jS5_EEEEED0Ev:
.LFB15351:
	.cfi_startproc
	endbr64
	pushq	%rbx
	.cfi_def_cfa_offset 16
	.cfi_offset 3, -16
	movq	%rdi, %rbx
	leaq	16+_ZTVNSt6thread11_State_implINS_8_InvokerISt5tupleIJM22basis_set_calculationsIdEFdPdjS5_EPS4_S5_jS5_EEEEEE(%rip), %rax
	movq	%rax, (%rdi)
	call	_ZNSt6thread6_StateD2Ev@PLT
	movl	$56, %esi
	movq	%rbx, %rdi
	call	_ZdlPvm@PLT
	popq	%rbx
	.cfi_def_cfa_offset 8
	ret
	.cfi_endproc
.LFE15351:
	.size	_ZNSt6thread11_State_implINS_8_InvokerISt5tupleIJM22basis_set_calculationsIdEFdPdjS5_EPS4_S5_jS5_EEEEED0Ev, .-_ZNSt6thread11_State_implINS_8_InvokerISt5tupleIJM22basis_set_calculationsIdEFdPdjS5_EPS4_S5_jS5_EEEEED0Ev
	.section	.text._ZNSt6thread11_State_implINS_8_InvokerISt5tupleIJM22basis_set_calculationsIdEFdPdS5_jEPS4_S5_S5_jEEEEED2Ev,"axG",@progbits,_ZNSt6thread11_State_implINS_8_InvokerISt5tupleIJM22basis_set_calculationsIdEFdPdS5_jEPS4_S5_S5_jEEEEED5Ev,comdat
	.align 2
	.weak	_ZNSt6thread11_State_implINS_8_InvokerISt5tupleIJM22basis_set_calculationsIdEFdPdS5_jEPS4_S5_S5_jEEEEED2Ev
	.type	_ZNSt6thread11_State_implINS_8_InvokerISt5tupleIJM22basis_set_calculationsIdEFdPdS5_jEPS4_S5_S5_jEEEEED2Ev, @function
_ZNSt6thread11_State_implINS_8_InvokerISt5tupleIJM22basis_set_calculationsIdEFdPdS5_jEPS4_S5_S5_jEEEEED2Ev:
.LFB15353:
	.cfi_startproc
	endbr64
	subq	$8, %rsp
	.cfi_def_cfa_offset 16
	leaq	16+_ZTVNSt6thread11_State_implINS_8_InvokerISt5tupleIJM22basis_set_calculationsIdEFdPdS5_jEPS4_S5_S5_jEEEEEE(%rip), %rax
	movq	%rax, (%rdi)
	call	_ZNSt6thread6_StateD2Ev@PLT
	addq	$8, %rsp
	.cfi_def_cfa_offset 8
	ret
	.cfi_endproc
.LFE15353:
	.size	_ZNSt6thread11_State_implINS_8_InvokerISt5tupleIJM22basis_set_calculationsIdEFdPdS5_jEPS4_S5_S5_jEEEEED2Ev, .-_ZNSt6thread11_State_implINS_8_InvokerISt5tupleIJM22basis_set_calculationsIdEFdPdS5_jEPS4_S5_S5_jEEEEED2Ev
	.weak	_ZNSt6thread11_State_implINS_8_InvokerISt5tupleIJM22basis_set_calculationsIdEFdPdS5_jEPS4_S5_S5_jEEEEED1Ev
	.set	_ZNSt6thread11_State_implINS_8_InvokerISt5tupleIJM22basis_set_calculationsIdEFdPdS5_jEPS4_S5_S5_jEEEEED1Ev,_ZNSt6thread11_State_implINS_8_InvokerISt5tupleIJM22basis_set_calculationsIdEFdPdS5_jEPS4_S5_S5_jEEEEED2Ev
	.section	.text._ZNSt6thread11_State_implINS_8_InvokerISt5tupleIJM22basis_set_calculationsIdEFdPdS5_jEPS4_S5_S5_jEEEEED0Ev,"axG",@progbits,_ZNSt6thread11_State_implINS_8_InvokerISt5tupleIJM22basis_set_calculationsIdEFdPdS5_jEPS4_S5_S5_jEEEEED5Ev,comdat
	.align 2
	.weak	_ZNSt6thread11_State_implINS_8_InvokerISt5tupleIJM22basis_set_calculationsIdEFdPdS5_jEPS4_S5_S5_jEEEEED0Ev
	.type	_ZNSt6thread11_State_implINS_8_InvokerISt5tupleIJM22basis_set_calculationsIdEFdPdS5_jEPS4_S5_S5_jEEEEED0Ev, @function
_ZNSt6thread11_State_implINS_8_InvokerISt5tupleIJM22basis_set_calculationsIdEFdPdS5_jEPS4_S5_S5_jEEEEED0Ev:
.LFB15355:
	.cfi_startproc
	endbr64
	pushq	%rbx
	.cfi_def_cfa_offset 16
	.cfi_offset 3, -16
	movq	%rdi, %rbx
	leaq	16+_ZTVNSt6thread11_State_implINS_8_InvokerISt5tupleIJM22basis_set_calculationsIdEFdPdS5_jEPS4_S5_S5_jEEEEEE(%rip), %rax
	movq	%rax, (%rdi)
	call	_ZNSt6thread6_StateD2Ev@PLT
	movl	$56, %esi
	movq	%rbx, %rdi
	call	_ZdlPvm@PLT
	popq	%rbx
	.cfi_def_cfa_offset 8
	ret
	.cfi_endproc
.LFE15355:
	.size	_ZNSt6thread11_State_implINS_8_InvokerISt5tupleIJM22basis_set_calculationsIdEFdPdS5_jEPS4_S5_S5_jEEEEED0Ev, .-_ZNSt6thread11_State_implINS_8_InvokerISt5tupleIJM22basis_set_calculationsIdEFdPdS5_jEPS4_S5_S5_jEEEEED0Ev
	.section	.text._ZNSt6thread11_State_implINS_8_InvokerISt5tupleIJM26basis_set_calculations_DFTIdEFdPdS5_S5_jEPS4_S5_S5_S5_jEEEEED2Ev,"axG",@progbits,_ZNSt6thread11_State_implINS_8_InvokerISt5tupleIJM26basis_set_calculations_DFTIdEFdPdS5_S5_jEPS4_S5_S5_S5_jEEEEED5Ev,comdat
	.align 2
	.weak	_ZNSt6thread11_State_implINS_8_InvokerISt5tupleIJM26basis_set_calculations_DFTIdEFdPdS5_S5_jEPS4_S5_S5_S5_jEEEEED2Ev
	.type	_ZNSt6thread11_State_implINS_8_InvokerISt5tupleIJM26basis_set_calculations_DFTIdEFdPdS5_S5_jEPS4_S5_S5_S5_jEEEEED2Ev, @function
_ZNSt6thread11_State_implINS_8_InvokerISt5tupleIJM26basis_set_calculations_DFTIdEFdPdS5_S5_jEPS4_S5_S5_S5_jEEEEED2Ev:
.LFB15341:
	.cfi_startproc
	endbr64
	subq	$8, %rsp
	.cfi_def_cfa_offset 16
	leaq	16+_ZTVNSt6thread11_State_implINS_8_InvokerISt5tupleIJM26basis_set_calculations_DFTIdEFdPdS5_S5_jEPS4_S5_S5_S5_jEEEEEE(%rip), %rax
	movq	%rax, (%rdi)
	call	_ZNSt6thread6_StateD2Ev@PLT
	addq	$8, %rsp
	.cfi_def_cfa_offset 8
	ret
	.cfi_endproc
.LFE15341:
	.size	_ZNSt6thread11_State_implINS_8_InvokerISt5tupleIJM26basis_set_calculations_DFTIdEFdPdS5_S5_jEPS4_S5_S5_S5_jEEEEED2Ev, .-_ZNSt6thread11_State_implINS_8_InvokerISt5tupleIJM26basis_set_calculations_DFTIdEFdPdS5_S5_jEPS4_S5_S5_S5_jEEEEED2Ev
	.weak	_ZNSt6thread11_State_implINS_8_InvokerISt5tupleIJM26basis_set_calculations_DFTIdEFdPdS5_S5_jEPS4_S5_S5_S5_jEEEEED1Ev
	.set	_ZNSt6thread11_State_implINS_8_InvokerISt5tupleIJM26basis_set_calculations_DFTIdEFdPdS5_S5_jEPS4_S5_S5_S5_jEEEEED1Ev,_ZNSt6thread11_State_implINS_8_InvokerISt5tupleIJM26basis_set_calculations_DFTIdEFdPdS5_S5_jEPS4_S5_S5_S5_jEEEEED2Ev
	.section	.text._ZNSt6thread11_State_implINS_8_InvokerISt5tupleIJM26basis_set_calculations_DFTIdEFdPdS5_S5_jEPS4_S5_S5_S5_jEEEEED0Ev,"axG",@progbits,_ZNSt6thread11_State_implINS_8_InvokerISt5tupleIJM26basis_set_calculations_DFTIdEFdPdS5_S5_jEPS4_S5_S5_S5_jEEEEED5Ev,comdat
	.align 2
	.weak	_ZNSt6thread11_State_implINS_8_InvokerISt5tupleIJM26basis_set_calculations_DFTIdEFdPdS5_S5_jEPS4_S5_S5_S5_jEEEEED0Ev
	.type	_ZNSt6thread11_State_implINS_8_InvokerISt5tupleIJM26basis_set_calculations_DFTIdEFdPdS5_S5_jEPS4_S5_S5_S5_jEEEEED0Ev, @function
_ZNSt6thread11_State_implINS_8_InvokerISt5tupleIJM26basis_set_calculations_DFTIdEFdPdS5_S5_jEPS4_S5_S5_S5_jEEEEED0Ev:
.LFB15343:
	.cfi_startproc
	endbr64
	pushq	%rbx
	.cfi_def_cfa_offset 16
	.cfi_offset 3, -16
	movq	%rdi, %rbx
	leaq	16+_ZTVNSt6thread11_State_implINS_8_InvokerISt5tupleIJM26basis_set_calculations_DFTIdEFdPdS5_S5_jEPS4_S5_S5_S5_jEEEEEE(%rip), %rax
	movq	%rax, (%rdi)
	call	_ZNSt6thread6_StateD2Ev@PLT
	movl	$64, %esi
	movq	%rbx, %rdi
	call	_ZdlPvm@PLT
	popq	%rbx
	.cfi_def_cfa_offset 8
	ret
	.cfi_endproc
.LFE15343:
	.size	_ZNSt6thread11_State_implINS_8_InvokerISt5tupleIJM26basis_set_calculations_DFTIdEFdPdS5_S5_jEPS4_S5_S5_S5_jEEEEED0Ev, .-_ZNSt6thread11_State_implINS_8_InvokerISt5tupleIJM26basis_set_calculations_DFTIdEFdPdS5_S5_jEPS4_S5_S5_S5_jEEEEED0Ev
	.section	.text._ZNSt6thread11_State_implINS_8_InvokerISt5tupleIJM26basis_set_calculations_DFTIdEFdPdS5_jEPS4_S5_S5_jEEEEED2Ev,"axG",@progbits,_ZNSt6thread11_State_implINS_8_InvokerISt5tupleIJM26basis_set_calculations_DFTIdEFdPdS5_jEPS4_S5_S5_jEEEEED5Ev,comdat
	.align 2
	.weak	_ZNSt6thread11_State_implINS_8_InvokerISt5tupleIJM26basis_set_calculations_DFTIdEFdPdS5_jEPS4_S5_S5_jEEEEED2Ev
	.type	_ZNSt6thread11_State_implINS_8_InvokerISt5tupleIJM26basis_set_calculations_DFTIdEFdPdS5_jEPS4_S5_S5_jEEEEED2Ev, @function
_ZNSt6thread11_State_implINS_8_InvokerISt5tupleIJM26basis_set_calculations_DFTIdEFdPdS5_jEPS4_S5_S5_jEEEEED2Ev:
.LFB15337:
	.cfi_startproc
	endbr64
	subq	$8, %rsp
	.cfi_def_cfa_offset 16
	leaq	16+_ZTVNSt6thread11_State_implINS_8_InvokerISt5tupleIJM26basis_set_calculations_DFTIdEFdPdS5_jEPS4_S5_S5_jEEEEEE(%rip), %rax
	movq	%rax, (%rdi)
	call	_ZNSt6thread6_StateD2Ev@PLT
	addq	$8, %rsp
	.cfi_def_cfa_offset 8
	ret
	.cfi_endproc
.LFE15337:
	.size	_ZNSt6thread11_State_implINS_8_InvokerISt5tupleIJM26basis_set_calculations_DFTIdEFdPdS5_jEPS4_S5_S5_jEEEEED2Ev, .-_ZNSt6thread11_State_implINS_8_InvokerISt5tupleIJM26basis_set_calculations_DFTIdEFdPdS5_jEPS4_S5_S5_jEEEEED2Ev
	.weak	_ZNSt6thread11_State_implINS_8_InvokerISt5tupleIJM26basis_set_calculations_DFTIdEFdPdS5_jEPS4_S5_S5_jEEEEED1Ev
	.set	_ZNSt6thread11_State_implINS_8_InvokerISt5tupleIJM26basis_set_calculations_DFTIdEFdPdS5_jEPS4_S5_S5_jEEEEED1Ev,_ZNSt6thread11_State_implINS_8_InvokerISt5tupleIJM26basis_set_calculations_DFTIdEFdPdS5_jEPS4_S5_S5_jEEEEED2Ev
	.section	.text._ZNSt6thread11_State_implINS_8_InvokerISt5tupleIJM26basis_set_calculations_DFTIdEFdPdS5_jEPS4_S5_S5_jEEEEED0Ev,"axG",@progbits,_ZNSt6thread11_State_implINS_8_InvokerISt5tupleIJM26basis_set_calculations_DFTIdEFdPdS5_jEPS4_S5_S5_jEEEEED5Ev,comdat
	.align 2
	.weak	_ZNSt6thread11_State_implINS_8_InvokerISt5tupleIJM26basis_set_calculations_DFTIdEFdPdS5_jEPS4_S5_S5_jEEEEED0Ev
	.type	_ZNSt6thread11_State_implINS_8_InvokerISt5tupleIJM26basis_set_calculations_DFTIdEFdPdS5_jEPS4_S5_S5_jEEEEED0Ev, @function
_ZNSt6thread11_State_implINS_8_InvokerISt5tupleIJM26basis_set_calculations_DFTIdEFdPdS5_jEPS4_S5_S5_jEEEEED0Ev:
.LFB15339:
	.cfi_startproc
	endbr64
	pushq	%rbx
	.cfi_def_cfa_offset 16
	.cfi_offset 3, -16
	movq	%rdi, %rbx
	leaq	16+_ZTVNSt6thread11_State_implINS_8_InvokerISt5tupleIJM26basis_set_calculations_DFTIdEFdPdS5_jEPS4_S5_S5_jEEEEEE(%rip), %rax
	movq	%rax, (%rdi)
	call	_ZNSt6thread6_StateD2Ev@PLT
	movl	$56, %esi
	movq	%rbx, %rdi
	call	_ZdlPvm@PLT
	popq	%rbx
	.cfi_def_cfa_offset 8
	ret
	.cfi_endproc
.LFE15339:
	.size	_ZNSt6thread11_State_implINS_8_InvokerISt5tupleIJM26basis_set_calculations_DFTIdEFdPdS5_jEPS4_S5_S5_jEEEEED0Ev, .-_ZNSt6thread11_State_implINS_8_InvokerISt5tupleIJM26basis_set_calculations_DFTIdEFdPdS5_jEPS4_S5_S5_jEEEEED0Ev
	.section	.text._ZNSt6thread11_State_implINS_8_InvokerISt5tupleIJM26basis_set_calculations_DFTIdEFdPdS5_S5_jS5_S5_dEPS4_S5_S5_S5_jS5_S5_dEEEEED2Ev,"axG",@progbits,_ZNSt6thread11_State_implINS_8_InvokerISt5tupleIJM26basis_set_calculations_DFTIdEFdPdS5_S5_jS5_S5_dEPS4_S5_S5_S5_jS5_S5_dEEEEED5Ev,comdat
	.align 2
	.weak	_ZNSt6thread11_State_implINS_8_InvokerISt5tupleIJM26basis_set_calculations_DFTIdEFdPdS5_S5_jS5_S5_dEPS4_S5_S5_S5_jS5_S5_dEEEEED2Ev
	.type	_ZNSt6thread11_State_implINS_8_InvokerISt5tupleIJM26basis_set_calculations_DFTIdEFdPdS5_S5_jS5_S5_dEPS4_S5_S5_S5_jS5_S5_dEEEEED2Ev, @function
_ZNSt6thread11_State_implINS_8_InvokerISt5tupleIJM26basis_set_calculations_DFTIdEFdPdS5_S5_jS5_S5_dEPS4_S5_S5_S5_jS5_S5_dEEEEED2Ev:
.LFB15333:
	.cfi_startproc
	endbr64
	subq	$8, %rsp
	.cfi_def_cfa_offset 16
	leaq	16+_ZTVNSt6thread11_State_implINS_8_InvokerISt5tupleIJM26basis_set_calculations_DFTIdEFdPdS5_S5_jS5_S5_dEPS4_S5_S5_S5_jS5_S5_dEEEEEE(%rip), %rax
	movq	%rax, (%rdi)
	call	_ZNSt6thread6_StateD2Ev@PLT
	addq	$8, %rsp
	.cfi_def_cfa_offset 8
	ret
	.cfi_endproc
.LFE15333:
	.size	_ZNSt6thread11_State_implINS_8_InvokerISt5tupleIJM26basis_set_calculations_DFTIdEFdPdS5_S5_jS5_S5_dEPS4_S5_S5_S5_jS5_S5_dEEEEED2Ev, .-_ZNSt6thread11_State_implINS_8_InvokerISt5tupleIJM26basis_set_calculations_DFTIdEFdPdS5_S5_jS5_S5_dEPS4_S5_S5_S5_jS5_S5_dEEEEED2Ev
	.weak	_ZNSt6thread11_State_implINS_8_InvokerISt5tupleIJM26basis_set_calculations_DFTIdEFdPdS5_S5_jS5_S5_dEPS4_S5_S5_S5_jS5_S5_dEEEEED1Ev
	.set	_ZNSt6thread11_State_implINS_8_InvokerISt5tupleIJM26basis_set_calculations_DFTIdEFdPdS5_S5_jS5_S5_dEPS4_S5_S5_S5_jS5_S5_dEEEEED1Ev,_ZNSt6thread11_State_implINS_8_InvokerISt5tupleIJM26basis_set_calculations_DFTIdEFdPdS5_S5_jS5_S5_dEPS4_S5_S5_S5_jS5_S5_dEEEEED2Ev
	.section	.text._ZNSt6thread11_State_implINS_8_InvokerISt5tupleIJM26basis_set_calculations_DFTIdEFdPdS5_S5_jS5_S5_dEPS4_S5_S5_S5_jS5_S5_dEEEEED0Ev,"axG",@progbits,_ZNSt6thread11_State_implINS_8_InvokerISt5tupleIJM26basis_set_calculations_DFTIdEFdPdS5_S5_jS5_S5_dEPS4_S5_S5_S5_jS5_S5_dEEEEED5Ev,comdat
	.align 2
	.weak	_ZNSt6thread11_State_implINS_8_InvokerISt5tupleIJM26basis_set_calculations_DFTIdEFdPdS5_S5_jS5_S5_dEPS4_S5_S5_S5_jS5_S5_dEEEEED0Ev
	.type	_ZNSt6thread11_State_implINS_8_InvokerISt5tupleIJM26basis_set_calculations_DFTIdEFdPdS5_S5_jS5_S5_dEPS4_S5_S5_S5_jS5_S5_dEEEEED0Ev, @function
_ZNSt6thread11_State_implINS_8_InvokerISt5tupleIJM26basis_set_calculations_DFTIdEFdPdS5_S5_jS5_S5_dEPS4_S5_S5_S5_jS5_S5_dEEEEED0Ev:
.LFB15335:
	.cfi_startproc
	endbr64
	pushq	%rbx
	.cfi_def_cfa_offset 16
	.cfi_offset 3, -16
	movq	%rdi, %rbx
	leaq	16+_ZTVNSt6thread11_State_implINS_8_InvokerISt5tupleIJM26basis_set_calculations_DFTIdEFdPdS5_S5_jS5_S5_dEPS4_S5_S5_S5_jS5_S5_dEEEEEE(%rip), %rax
	movq	%rax, (%rdi)
	call	_ZNSt6thread6_StateD2Ev@PLT
	movl	$88, %esi
	movq	%rbx, %rdi
	call	_ZdlPvm@PLT
	popq	%rbx
	.cfi_def_cfa_offset 8
	ret
	.cfi_endproc
.LFE15335:
	.size	_ZNSt6thread11_State_implINS_8_InvokerISt5tupleIJM26basis_set_calculations_DFTIdEFdPdS5_S5_jS5_S5_dEPS4_S5_S5_S5_jS5_S5_dEEEEED0Ev, .-_ZNSt6thread11_State_implINS_8_InvokerISt5tupleIJM26basis_set_calculations_DFTIdEFdPdS5_S5_jS5_S5_dEPS4_S5_S5_S5_jS5_S5_dEEEEED0Ev
	.section	.text._ZNSt6thread11_State_implINS_8_InvokerISt5tupleIJM19Huckel_calculationsIdEFdjPdjddS5_EPS4_jS5_iddS5_EEEEED2Ev,"axG",@progbits,_ZNSt6thread11_State_implINS_8_InvokerISt5tupleIJM19Huckel_calculationsIdEFdjPdjddS5_EPS4_jS5_iddS5_EEEEED5Ev,comdat
	.align 2
	.weak	_ZNSt6thread11_State_implINS_8_InvokerISt5tupleIJM19Huckel_calculationsIdEFdjPdjddS5_EPS4_jS5_iddS5_EEEEED2Ev
	.type	_ZNSt6thread11_State_implINS_8_InvokerISt5tupleIJM19Huckel_calculationsIdEFdjPdjddS5_EPS4_jS5_iddS5_EEEEED2Ev, @function
_ZNSt6thread11_State_implINS_8_InvokerISt5tupleIJM19Huckel_calculationsIdEFdjPdjddS5_EPS4_jS5_iddS5_EEEEED2Ev:
.LFB15325:
	.cfi_startproc
	endbr64
	subq	$8, %rsp
	.cfi_def_cfa_offset 16
	leaq	16+_ZTVNSt6thread11_State_implINS_8_InvokerISt5tupleIJM19Huckel_calculationsIdEFdjPdjddS5_EPS4_jS5_iddS5_EEEEEE(%rip), %rax
	movq	%rax, (%rdi)
	call	_ZNSt6thread6_StateD2Ev@PLT
	addq	$8, %rsp
	.cfi_def_cfa_offset 8
	ret
	.cfi_endproc
.LFE15325:
	.size	_ZNSt6thread11_State_implINS_8_InvokerISt5tupleIJM19Huckel_calculationsIdEFdjPdjddS5_EPS4_jS5_iddS5_EEEEED2Ev, .-_ZNSt6thread11_State_implINS_8_InvokerISt5tupleIJM19Huckel_calculationsIdEFdjPdjddS5_EPS4_jS5_iddS5_EEEEED2Ev
	.weak	_ZNSt6thread11_State_implINS_8_InvokerISt5tupleIJM19Huckel_calculationsIdEFdjPdjddS5_EPS4_jS5_iddS5_EEEEED1Ev
	.set	_ZNSt6thread11_State_implINS_8_InvokerISt5tupleIJM19Huckel_calculationsIdEFdjPdjddS5_EPS4_jS5_iddS5_EEEEED1Ev,_ZNSt6thread11_State_implINS_8_InvokerISt5tupleIJM19Huckel_calculationsIdEFdjPdjddS5_EPS4_jS5_iddS5_EEEEED2Ev
	.section	.text._ZNSt6thread11_State_implINS_8_InvokerISt5tupleIJM19Huckel_calculationsIdEFdjPdjddS5_EPS4_jS5_iddS5_EEEEED0Ev,"axG",@progbits,_ZNSt6thread11_State_implINS_8_InvokerISt5tupleIJM19Huckel_calculationsIdEFdjPdjddS5_EPS4_jS5_iddS5_EEEEED5Ev,comdat
	.align 2
	.weak	_ZNSt6thread11_State_implINS_8_InvokerISt5tupleIJM19Huckel_calculationsIdEFdjPdjddS5_EPS4_jS5_iddS5_EEEEED0Ev
	.type	_ZNSt6thread11_State_implINS_8_InvokerISt5tupleIJM19Huckel_calculationsIdEFdjPdjddS5_EPS4_jS5_iddS5_EEEEED0Ev, @function
_ZNSt6thread11_State_implINS_8_InvokerISt5tupleIJM19Huckel_calculationsIdEFdjPdjddS5_EPS4_jS5_iddS5_EEEEED0Ev:
.LFB15327:
	.cfi_startproc
	endbr64
	pushq	%rbx
	.cfi_def_cfa_offset 16
	.cfi_offset 3, -16
	movq	%rdi, %rbx
	leaq	16+_ZTVNSt6thread11_State_implINS_8_InvokerISt5tupleIJM19Huckel_calculationsIdEFdjPdjddS5_EPS4_jS5_iddS5_EEEEEE(%rip), %rax
	movq	%rax, (%rdi)
	call	_ZNSt6thread6_StateD2Ev@PLT
	movl	$80, %esi
	movq	%rbx, %rdi
	call	_ZdlPvm@PLT
	popq	%rbx
	.cfi_def_cfa_offset 8
	ret
	.cfi_endproc
.LFE15327:
	.size	_ZNSt6thread11_State_implINS_8_InvokerISt5tupleIJM19Huckel_calculationsIdEFdjPdjddS5_EPS4_jS5_iddS5_EEEEED0Ev, .-_ZNSt6thread11_State_implINS_8_InvokerISt5tupleIJM19Huckel_calculationsIdEFdjPdjddS5_EPS4_jS5_iddS5_EEEEED0Ev
	.section	.text._ZN22basis_set_calculationsIdE28Integrate_Integral_coulombicEPdS1_S1_jddd,"axG",@progbits,_ZN22basis_set_calculationsIdE28Integrate_Integral_coulombicEPdS1_S1_jddd,comdat
	.align 2
	.weak	_ZN22basis_set_calculationsIdE28Integrate_Integral_coulombicEPdS1_S1_jddd
	.type	_ZN22basis_set_calculationsIdE28Integrate_Integral_coulombicEPdS1_S1_jddd, @function
_ZN22basis_set_calculationsIdE28Integrate_Integral_coulombicEPdS1_S1_jddd:
.LFB11157:
	.cfi_startproc
	endbr64
	pushq	%r15
	.cfi_def_cfa_offset 16
	.cfi_offset 15, -16
	pushq	%r14
	.cfi_def_cfa_offset 24
	.cfi_offset 14, -24
	pushq	%r13
	.cfi_def_cfa_offset 32
	.cfi_offset 13, -32
	pushq	%r12
	.cfi_def_cfa_offset 40
	.cfi_offset 12, -40
	pushq	%rbp
	.cfi_def_cfa_offset 48
	.cfi_offset 6, -48
	pushq	%rbx
	.cfi_def_cfa_offset 56
	.cfi_offset 3, -56
	subq	$48, %rsp
	.cfi_def_cfa_offset 104
	movq	%rdi, -56(%rsp)
	movq	%rsi, -48(%rsp)
	movq	%rdx, %r13
	movq	%rcx, %rax
	movl	%r8d, %edx
	movapd	%xmm0, %xmm5
	movapd	%xmm2, %xmm0
	movq	1224(%rdi), %rcx
	movl	$0, %ebx
	cmpq	1232(%rdi), %rcx
	je	.L185
	movq	1176(%rdi), %rsi
	cmpq	1184(%rdi), %rsi
	je	.L185
	cmpl	%r8d, (%rsi)
	je	.L288
.L185:
	leal	1(%rdx,%rdx), %r12d
	movl	%edx, %ecx
	pxor	%xmm3, %xmm3
	cvtsi2sdq	%rcx, %xmm3
	movq	-56(%rsp), %rdi
	movsd	200(%rdi), %xmm4
	movsd	.LC5(%rip), %xmm2
	divsd	%xmm4, %xmm2
	movapd	%xmm3, %xmm6
	mulsd	%xmm5, %xmm6
	mulsd	%xmm2, %xmm6
	cvttsd2sil	%xmm6, %edi
	movl	%edi, -36(%rsp)
	movapd	%xmm3, %xmm6
	mulsd	%xmm1, %xmm6
	mulsd	%xmm2, %xmm6
	cvttsd2sil	%xmm6, %edi
	movl	%edi, -84(%rsp)
	movapd	%xmm3, %xmm6
	mulsd	%xmm0, %xmm6
	mulsd	%xmm2, %xmm6
	cvttsd2sil	%xmm6, %edi
	movl	%edi, -68(%rsp)
	movl	%r12d, %edi
	imull	%r12d, %edi
	movl	%edi, -92(%rsp)
	movl	%edx, %r14d
	movl	$0, %ecx
	movl	$0, %r15d
	movl	$0, %edi
	movl	$0, %r9d
	movl	$0, %ebp
	pxor	%xmm7, %xmm7
	jmp	.L188
.L288:
	movq	(%rcx), %rbx
	jmp	.L185
.L192:
	leal	(%rsi,%r9), %r11d
	movl	%edx, %eax
	subl	%esi, %eax
	cmpl	%edx, %r11d
	cmovb	%eax, %r9d
	jmp	.L191
.L194:
	leal	(%r8,%rdi), %r11d
	cmpl	%edx, %r11d
	cmovb	-104(%rsp), %edi
	jmp	.L193
.L195:
	leal	0(%rbp,%r15), %r11d
	cmpl	%edx, %r11d
	cmovb	%r14d, %r15d
.L189:
	addl	$1, %esi
	cmpl	%r12d, %esi
	jnb	.L289
.L196:
	leal	(%rsi,%r10), %r11d
	movq	-48(%rsp), %rax
	movsd	(%rax,%r11,8), %xmm6
	comisd	%xmm7, %xmm6
	jbe	.L189
	cmpl	%esi, %edx
	jnb	.L191
	leal	(%rdx,%r9), %r11d
	cmpl	%esi, %r11d
	jnb	.L192
	movl	%esi, %r9d
	subl	%edx, %r9d
.L191:
	cmpl	%r8d, %edx
	jnb	.L193
	leal	(%rdx,%rdi), %r11d
	cmpl	%r8d, %r11d
	jnb	.L194
	movl	-120(%rsp), %edi
.L193:
	cmpl	%ebp, %edx
	jnb	.L189
	leal	(%rdx,%r15), %r11d
	cmpl	%ebp, %r11d
	jnb	.L195
	movl	%r14d, %r15d
	negl	%r15d
	jmp	.L189
.L289:
	movq	-112(%rsp), %rax
	addl	$1, %r8d
	addl	%r12d, %r10d
	cmpl	%r12d, %r8d
	jnb	.L197
.L199:
	movl	$0, %esi
	movl	%edx, %r11d
	subl	%r8d, %r11d
	movl	%r11d, -104(%rsp)
	movl	%r8d, %r11d
	subl	%edx, %r11d
	movl	%r11d, -120(%rsp)
	movq	%rax, -112(%rsp)
	jmp	.L196
.L197:
	addl	$1, %ebp
	subl	$1, %r14d
	movl	-92(%rsp), %esi
	addl	%esi, %ecx
	cmpl	%r12d, %ebp
	jnb	.L252
.L188:
	movl	%ecx, %r10d
	movl	$0, %r8d
	jmp	.L199
.L203:
	leal	(%rdi,%r14), %r10d
	movl	%edx, %eax
	subl	%edi, %eax
	cmpl	%edx, %r10d
	cmovb	%eax, %r14d
	jmp	.L202
.L205:
	leal	(%rsi,%r11), %r10d
	cmpl	%edx, %r10d
	cmovb	-112(%rsp), %r11d
	jmp	.L204
.L206:
	leal	0(%rbp,%r8), %r10d
	cmpl	%edx, %r10d
	cmovb	-104(%rsp), %r8d
.L200:
	addl	$1, %edi
	cmpl	%r12d, %edi
	jnb	.L290
.L207:
	leal	(%rdi,%r9), %r10d
	movsd	0(%r13,%r10,8), %xmm6
	comisd	%xmm7, %xmm6
	jbe	.L200
	cmpl	%edi, %edx
	jnb	.L202
	leal	(%rdx,%r14), %r10d
	cmpl	%edi, %r10d
	jnb	.L203
	movl	%edi, %r14d
	subl	%edx, %r14d
.L202:
	cmpl	%esi, %edx
	jnb	.L204
	leal	(%rdx,%r11), %r10d
	cmpl	%esi, %r10d
	jnb	.L205
	movl	-100(%rsp), %r11d
.L204:
	cmpl	%ebp, %edx
	jnb	.L200
	leal	(%rdx,%r8), %r10d
	cmpl	%ebp, %r10d
	jnb	.L206
	movl	-104(%rsp), %r8d
	negl	%r8d
	jmp	.L200
.L290:
	movl	%r15d, %r10d
	movl	-88(%rsp), %r15d
	movq	-120(%rsp), %rax
	addl	$1, %esi
	addl	%r12d, %r9d
	cmpl	%r12d, %esi
	jnb	.L208
.L210:
	movl	%edx, %edi
	subl	%esi, %edi
	movl	%edi, -112(%rsp)
	movl	%esi, %edi
	subl	%edx, %edi
	movl	%edi, -100(%rsp)
	movl	%r15d, -88(%rsp)
	movl	%r10d, %r15d
	movl	$0, %edi
	movq	%rax, -120(%rsp)
	jmp	.L207
.L208:
	movl	%r10d, %edi
	addl	$1, %ebp
	subl	$1, -104(%rsp)
	movl	-92(%rsp), %r10d
	addl	%r10d, %ecx
	cmpl	%r12d, %ebp
	jnb	.L291
.L198:
	movl	%ecx, %r9d
	movl	$0, %esi
	movl	%edi, %r10d
	jmp	.L210
.L252:
	movl	%edx, -104(%rsp)
	movl	$0, %ecx
	movl	$0, %r8d
	movl	$0, %r11d
	movl	$0, %r14d
	movl	$0, %ebp
	pxor	%xmm7, %xmm7
	movl	%r9d, -96(%rsp)
	jmp	.L198
.L291:
	movl	-96(%rsp), %r9d
	leal	(%r9,%rdx), %ecx
	movl	%ecx, -64(%rsp)
	leal	(%rdi,%rdx), %ecx
	movl	%ecx, -60(%rsp)
	leal	(%r15,%rdx), %r10d
	leal	(%r14,%rdx), %ecx
	movl	%ecx, -32(%rsp)
	leal	(%r11,%rdx), %ecx
	movl	%ecx, -96(%rsp)
	leal	(%r8,%rdx), %ecx
	movl	%ecx, -24(%rsp)
	movl	%edx, %ecx
	subl	%r9d, %ecx
	movl	%ecx, -20(%rsp)
	movl	%edx, %r9d
	subl	%edi, %r9d
	movl	%edx, %edi
	subl	%r15d, %edi
	movl	%edx, %r15d
	subl	%r14d, %r15d
	movl	%edx, %ecx
	subl	%r11d, %ecx
	movl	%ecx, -88(%rsp)
	subl	%r8d, %edx
	movl	%edx, -76(%rsp)
	pxor	%xmm6, %xmm6
	ucomisd	%xmm6, %xmm5
	setnp	%dl
	movl	$0, %ecx
	cmovne	%ecx, %edx
	testb	%dl, %dl
	je	.L215
	ucomisd	%xmm6, %xmm1
	setnp	%dl
	cmovne	%ecx, %edx
	testb	%dl, %dl
	je	.L215
	pxor	%xmm1, %xmm1
	ucomisd	%xmm1, %xmm0
	setnp	%dl
	movl	$0, %ecx
	cmovne	%ecx, %edx
	testb	%dl, %dl
	je	.L215
	testq	%rbx, %rbx
	je	.L215
	cmpl	%r10d, %edi
	jnb	.L254
	movl	-92(%rsp), %r14d
	movl	%r14d, %esi
	imull	%r12d, %esi
	movl	%r12d, %ecx
	imull	%esi, %ecx
	movl	%ecx, 16(%rsp)
	imull	%r12d, %ecx
	movl	%ecx, %r8d
	movl	%r12d, %edx
	imull	%edi, %edx
	addl	%r9d, %edx
	imull	%r12d, %edx
	movl	%edx, (%rsp)
	movl	-20(%rsp), %ecx
	addl	%edx, %ecx
	imull	%r12d, %ecx
	movl	-76(%rsp), %edx
	addl	%ecx, %edx
	imull	%r12d, %edx
	movl	-88(%rsp), %r11d
	addl	%r11d, %edx
	imull	%r12d, %edx
	movl	-36(%rsp), %r11d
	subl	%r11d, %edx
	movl	%edx, -4(%rsp)
	movl	%r14d, %edx
	imull	%esi, %r14d
	movl	%r14d, 8(%rsp)
	imull	%edx, %ecx
	negl	%ecx
	movl	%ecx, %ebp
	movl	%edx, %ecx
	imull	%edx, %ecx
	movl	%ecx, 12(%rsp)
	movl	-68(%rsp), %ecx
	movl	-24(%rsp), %edx
	addl	%edx, %ecx
	movl	%ecx, -40(%rsp)
	movl	-84(%rsp), %ecx
	movl	-96(%rsp), %edx
	addl	%edx, %ecx
	movl	%ecx, -112(%rsp)
	movl	-32(%rsp), %ecx
	leal	(%rcx,%r11), %r14d
	movl	%r12d, %ecx
	movl	%r15d, %edx
	movl	%ebp, 4(%rsp)
	movl	%edi, %ebp
	movl	%esi, %edi
	movq	%rax, %rsi
	jmp	.L217
.L215:
	cmpl	%r10d, %edi
	jnb	.L253
	movl	%r12d, %edx
	imull	%edi, %edx
	addl	%r9d, %edx
	movl	%edx, %ecx
	imull	%r12d, %ecx
	movl	-76(%rsp), %edx
	imull	%r12d, %edx
	movl	-88(%rsp), %ebx
	addl	%ebx, %edx
	imull	%r12d, %edx
	movl	-36(%rsp), %r14d
	subl	%r14d, %edx
	movl	%edx, -80(%rsp)
	pxor	%xmm2, %xmm2
	movl	-96(%rsp), %ebx
	movl	-84(%rsp), %edx
	addl	%edx, %ebx
	movl	%ebx, -120(%rsp)
	movsd	.LC5(%rip), %xmm5
	movl	-32(%rsp), %ebp
	movl	%edi, -104(%rsp)
	movl	-24(%rsp), %edi
	jmp	.L214
.L220:
	leal	(%r10,%rax), %ecx
	leal	(%r11,%rax), %edx
	movsd	(%rbx,%rcx,8), %xmm0
	mulsd	0(%r13,%rdx,8), %xmm0
	mulsd	0(%rbp), %xmm0
	addsd	%xmm0, %xmm1
.L221:
	addl	$1, %eax
	cmpl	%eax, %r14d
	je	.L292
.L222:
	cmpl	%r9d, %eax
	jne	.L220
	cmpl	%r15d, %r12d
	jne	.L220
	movl	-100(%rsp), %edx
	cmpl	%edx, -120(%rsp)
	jne	.L220
	jmp	.L221
.L292:
	movl	-104(%rsp), %ecx
.L224:
	addl	%ecx, %r10d
	addl	%ecx, %r11d
	addl	$1, %r12d
	cmpl	%r12d, -112(%rsp)
	je	.L275
.L219:
	leal	(%rsi,%rdi), %eax
	cmpl	%r8d, %esi
	jnb	.L224
	movl	%ecx, -104(%rsp)
	jmp	.L222
.L275:
	movl	-80(%rsp), %edx
.L218:
	movl	-92(%rsp), %eax
	addl	%eax, %edx
	addl	$1, -120(%rsp)
	movl	-120(%rsp), %eax
	movl	-40(%rsp), %r11d
	cmpl	%r11d, %eax
	je	.L293
.L225:
	movl	-88(%rsp), %eax
	movl	-96(%rsp), %r11d
	cmpl	%r11d, %eax
	jnb	.L218
	movl	-72(%rsp), %r11d
	addl	%edx, %r11d
	movl	-84(%rsp), %r10d
	leal	(%r10,%rax), %r12d
	movl	%edx, %r10d
	movl	%edx, -80(%rsp)
	jmp	.L219
.L293:
	movl	%edi, %edx
	movl	32(%rsp), %r12d
	movl	36(%rsp), %r10d
	movq	40(%rsp), %rdi
.L228:
	addl	$1, %r9d
	addl	%r12d, -16(%rsp)
	subl	%r12d, -72(%rsp)
	cmpl	%r9d, -64(%rsp)
	je	.L277
.L230:
	movl	-24(%rsp), %r11d
	cmpl	%r11d, -76(%rsp)
	jnb	.L228
	movl	-8(%rsp), %eax
	leal	(%r9,%rax), %eax
	movq	-48(%rsp), %r11
	leaq	(%r11,%rax,8), %rbp
	movl	-68(%rsp), %eax
	movl	-76(%rsp), %r11d
	addl	%r11d, %eax
	movl	%eax, -120(%rsp)
	movl	-16(%rsp), %eax
	movl	%r12d, 32(%rsp)
	movl	%r10d, 36(%rsp)
	movq	%rdi, 40(%rsp)
	movl	%edx, %edi
	movl	%eax, %edx
	jmp	.L225
.L277:
	movl	28(%rsp), %r11d
.L226:
	addl	$1, %r15d
	movl	16(%rsp), %r8d
	addl	%r8d, -12(%rsp)
	movl	12(%rsp), %eax
	subl	%eax, %r11d
	addl	%ecx, -8(%rsp)
	cmpl	%r15d, -60(%rsp)
	je	.L294
.L231:
	movl	%r11d, -72(%rsp)
	movl	-12(%rsp), %eax
	movl	%eax, -16(%rsp)
	movl	-20(%rsp), %eax
	movl	%eax, %r9d
	movl	-64(%rsp), %r8d
	cmpl	%r8d, %eax
	jnb	.L226
	movl	-32(%rsp), %r8d
	movl	%r11d, 28(%rsp)
	jmp	.L230
.L294:
	movl	24(%rsp), %r9d
	movl	%esi, %edx
	movl	-100(%rsp), %ebp
	movl	%r10d, %r8d
	movl	20(%rsp), %r10d
	movq	%rdi, %rsi
	movl	%r12d, %edi
.L229:
	addl	$1, %ebp
	addl	%r8d, -4(%rsp)
	movl	8(%rsp), %r15d
	subl	%r15d, 4(%rsp)
	movl	-92(%rsp), %r15d
	addl	%r15d, (%rsp)
	cmpl	%ebp, %r10d
	je	.L279
.L217:
	movl	-60(%rsp), %eax
	cmpl	%eax, %r9d
	jnb	.L229
	movl	(%rsp), %eax
	movl	%eax, -8(%rsp)
	movl	4(%rsp), %r11d
	movl	-4(%rsp), %eax
	movl	%eax, -12(%rsp)
	movl	%r9d, %r15d
	movl	%r10d, 20(%rsp)
	movl	%r9d, 24(%rsp)
	movl	%ebp, -100(%rsp)
	movl	%edi, %r12d
	movl	%r8d, %r10d
	movq	%rsi, %rdi
	movl	%edx, %esi
	movl	-36(%rsp), %edx
	jmp	.L231
.L254:
	pxor	%xmm1, %xmm1
	jmp	.L216
.L279:
	movq	%rsi, %rax
.L216:
	divsd	%xmm1, %xmm2
	movq	-56(%rsp), %rbx
	mulsd	144(%rbx), %xmm3
	movapd	%xmm3, %xmm0
	mulsd	%xmm2, %xmm0
	jmp	.L232
.L235:
	movl	%ecx, %eax
	subl	%edx, %eax
	imull	%eax, %eax
	addl	%edi, %eax
	pxor	%xmm1, %xmm1
	cvtsi2sdl	%eax, %xmm1
	sqrtsd	%xmm1, %xmm1
	leal	(%rdx,%rsi), %eax
	mulsd	%xmm4, %xmm1
	movapd	%xmm5, %xmm0
	divsd	%xmm1, %xmm0
	mulsd	0(%r13,%rax,8), %xmm0
	movapd	%xmm3, %xmm1
	mulsd	(%r9), %xmm1
	mulsd	%xmm1, %xmm0
	addsd	%xmm0, %xmm2
.L236:
	addl	$1, %edx
	cmpl	%r8d, %edx
	je	.L239
.L237:
	cmpl	%edx, %ecx
	jne	.L235
	cmpl	%r10d, %r11d
	jne	.L235
	cmpl	%ebx, -104(%rsp)
	jne	.L235
	jmp	.L236
.L239:
	addl	%r12d, %esi
	addl	$1, %r10d
	movl	-120(%rsp), %eax
	cmpl	%eax, %r10d
	je	.L258
.L234:
	leal	(%r15,%r14), %edx
	cmpl	%ebp, %r15d
	jb	.L237
	jmp	.L239
.L257:
	movl	-88(%rsp), %esi
	jmp	.L233
.L258:
	movl	-112(%rsp), %eax
	movl	-96(%rsp), %esi
.L233:
	movl	-92(%rsp), %edi
	addl	%edi, %eax
	addl	$1, %ebx
	movl	-100(%rsp), %edi
	cmpl	%edi, %ebx
	je	.L295
.L240:
	movl	%r11d, %edi
	subl	%esi, %edi
	movl	-84(%rsp), %esi
	subl	%esi, %edi
	movl	-104(%rsp), %edx
	subl	%ebx, %edx
	imull	%edi, %edi
	imull	%edx, %edx
	addl	%edx, %edi
	movl	-88(%rsp), %edx
	movl	-96(%rsp), %r10d
	cmpl	%r10d, %edx
	jnb	.L257
	leal	(%rdx,%rsi), %r10d
	movl	%eax, %esi
	movl	%eax, -112(%rsp)
	jmp	.L234
.L295:
	movl	-24(%rsp), %edi
	movl	-16(%rsp), %edx
.L243:
	addl	$1, %ecx
	cmpl	%ecx, -64(%rsp)
	je	.L281
.L245:
	cmpl	%edi, -76(%rsp)
	jnb	.L243
	leal	(%rcx,%rdx), %eax
	movq	-48(%rsp), %rbx
	leaq	(%rbx,%rax,8), %r9
	movl	-76(%rsp), %eax
	movl	-68(%rsp), %ebx
	addl	%eax, %ebx
	movl	-80(%rsp), %eax
	movl	%edi, -24(%rsp)
	movl	%edx, -16(%rsp)
	jmp	.L240
.L281:
	movq	-32(%rsp), %rax
.L241:
	addl	$1, %r11d
	addl	%r12d, %edx
	cmpl	%r11d, -60(%rsp)
	je	.L282
.L246:
	movl	-20(%rsp), %ebx
	movl	%ebx, %ecx
	movl	-68(%rsp), %r10d
	addl	%edi, %r10d
	movl	%r10d, -100(%rsp)
	movl	-64(%rsp), %r10d
	cmpl	%r10d, %ebx
	jnb	.L241
	movq	%rax, -32(%rsp)
	jmp	.L245
.L282:
	movl	-72(%rsp), %r10d
	movl	-40(%rsp), %r9d
	movl	-36(%rsp), %ecx
.L244:
	addl	$1, -104(%rsp)
	movl	-104(%rsp), %ebx
	movl	-92(%rsp), %edx
	addl	%edx, %ecx
	cmpl	%ebx, %r10d
	je	.L213
.L214:
	movl	%ecx, %edx
	movl	%r9d, %r11d
	leal	0(%rbp,%r14), %r8d
	movl	-60(%rsp), %ebx
	cmpl	%ebx, %r9d
	jnb	.L244
	movl	%r10d, -72(%rsp)
	movl	%r9d, -40(%rsp)
	movl	%ecx, -36(%rsp)
	jmp	.L246
.L253:
	pxor	%xmm2, %xmm2
.L213:
	movq	-56(%rsp), %rbx
	movsd	144(%rbx), %xmm0
	divsd	%xmm2, %xmm0
.L232:
	movq	-56(%rsp), %rbx
	movsd	112(%rbx), %xmm1
	mulsd	%xmm1, %xmm1
	mulsd	.LC8(%rip), %xmm1
	movsd	80(%rbx), %xmm2
	mulsd	88(%rbx), %xmm2
	mulsd	%xmm0, %xmm2
	divsd	%xmm2, %xmm1
	ucomisd	%xmm1, %xmm1
	jp	.L184
	movapd	%xmm1, %xmm2
	andpd	.LC9(%rip), %xmm2
	ucomisd	.LC10(%rip), %xmm2
	ja	.L184
	addsd	(%rax), %xmm1
	movsd	%xmm1, (%rax)
.L184:
	addq	$48, %rsp
	.cfi_def_cfa_offset 56
	popq	%rbx
	.cfi_def_cfa_offset 48
	popq	%rbp
	.cfi_def_cfa_offset 40
	popq	%r12
	.cfi_def_cfa_offset 32
	popq	%r13
	.cfi_def_cfa_offset 24
	popq	%r14
	.cfi_def_cfa_offset 16
	popq	%r15
	.cfi_def_cfa_offset 8
	ret
	.cfi_endproc
.LFE11157:
	.size	_ZN22basis_set_calculationsIdE28Integrate_Integral_coulombicEPdS1_S1_jddd, .-_ZN22basis_set_calculationsIdE28Integrate_Integral_coulombicEPdS1_S1_jddd
	.section	.text._ZN22basis_set_calculationsIdE15Gradient_threadEPdS1_j,"axG",@progbits,_ZN22basis_set_calculationsIdE15Gradient_threadEPdS1_j,comdat
	.align 2
	.weak	_ZN22basis_set_calculationsIdE15Gradient_threadEPdS1_j
	.type	_ZN22basis_set_calculationsIdE15Gradient_threadEPdS1_j, @function
_ZN22basis_set_calculationsIdE15Gradient_threadEPdS1_j:
.LFB11153:
	.cfi_startproc
	endbr64
	pushq	%r15
	.cfi_def_cfa_offset 16
	.cfi_offset 15, -16
	pushq	%r14
	.cfi_def_cfa_offset 24
	.cfi_offset 14, -24
	pushq	%r13
	.cfi_def_cfa_offset 32
	.cfi_offset 13, -32
	pushq	%r12
	.cfi_def_cfa_offset 40
	.cfi_offset 12, -40
	pushq	%rbp
	.cfi_def_cfa_offset 48
	.cfi_offset 6, -48
	pushq	%rbx
	.cfi_def_cfa_offset 56
	.cfi_offset 3, -56
	movq	%rdi, %r9
	movq	%rsi, %r8
	movq	%rdx, %rax
	movl	%ecx, %edx
	leal	(%rcx,%rcx), %r15d
	leal	1(%r15), %esi
	movl	%esi, %edi
	imull	%esi, %edi
	movl	%esi, %ecx
	imull	%edi, %ecx
	movl	%edx, %r10d
	pxor	%xmm0, %xmm0
	cvtsi2sdq	%r10, %xmm0
	movsd	200(%r9), %xmm1
	divsd	%xmm0, %xmm1
	mulsd	144(%r9), %xmm1
	testl	%edi, %edi
	je	.L299
	movsd	.LC5(%rip), %xmm4
	divsd	%xmm1, %xmm4
	movl	%edi, %r10d
	negl	%edx
	movl	%edx, %r11d
	movl	%esi, %r9d
	movl	$0, %edx
	movapd	%xmm4, %xmm5
	mulsd	.LC11(%rip), %xmm5
	leal	-1(%r11,%r11), %r11d
	movapd	%xmm5, %xmm6
	movsd	.LC12(%rip), %xmm3
	jmp	.L304
.L300:
	movsd	8(%rax), %xmm0
	subsd	(%rax), %xmm0
	mulsd	%xmm4, %xmm0
	jmp	.L301
.L302:
	movl	%r9d, %ebp
	movsd	(%rax,%rbp,8), %xmm2
	subsd	(%rax,%rdx,8), %xmm2
	mulsd	%xmm4, %xmm2
.L303:
	leal	(%rdi,%rbx), %ebx
	movsd	(%rax,%rbx,8), %xmm7
	subsd	(%rax,%rdx,8), %xmm7
	mulsd	%xmm4, %xmm7
	mulsd	%xmm0, %xmm0
	mulsd	%xmm7, %xmm7
	addsd	%xmm7, %xmm0
	mulsd	%xmm2, %xmm2
	addsd	%xmm2, %xmm0
	mulsd	%xmm3, %xmm0
	sqrtsd	%xmm0, %xmm0
	movsd	%xmm0, (%r8,%rdx,8)
	addq	$1, %rdx
	addl	$1, %r9d
	cmpq	%r10, %rdx
	je	.L316
.L304:
	movl	%edx, %ebx
	testl	%edx, %edx
	je	.L300
	leal	-1(%rdx), %ebp
	movsd	8(%rax,%rdx,8), %xmm0
	subsd	(%rax,%rbp,8), %xmm0
	mulsd	%xmm5, %xmm0
.L301:
	cmpl	%esi, %ebx
	jb	.L302
	movl	%r9d, %r12d
	leal	(%r11,%rbx), %ebp
	movsd	(%rax,%r12,8), %xmm2
	subsd	(%rax,%rbp,8), %xmm2
	mulsd	%xmm6, %xmm2
	jmp	.L303
.L316:
	movl	%ecx, %r9d
	subl	%edi, %r9d
	cmpl	%r9d, %edi
	jnb	.L305
	movl	%r9d, %r10d
	subl	%edi, %r10d
	leal	-1(%r10), %r14d
	leal	1(%rdi), %r10d
	leaq	(%rax,%r10,8), %r13
	movl	%edi, %r10d
	subl	%r15d, %r10d
	leal	(%rdi,%rdi), %r12d
	leaq	(%r8,%rdx,8), %rbp
	movl	$0, %edx
	mulsd	.LC11(%rip), %xmm4
	leal	-1(%rdi), %ebx
	leal	1(%r15,%rdi), %r11d
	subl	$1, %r10d
	movsd	.LC12(%rip), %xmm5
	movl	%r15d, -8(%rsp)
	movl	%esi, -4(%rsp)
.L306:
	leal	(%rbx,%rdx), %esi
	movsd	0(%r13,%rdx,8), %xmm0
	subsd	(%rax,%rsi,8), %xmm0
	mulsd	%xmm4, %xmm0
	leal	(%r11,%rdx), %r15d
	leal	(%r10,%rdx), %esi
	movsd	(%rax,%r15,8), %xmm3
	subsd	(%rax,%rsi,8), %xmm3
	mulsd	%xmm4, %xmm3
	leal	(%r12,%rdx), %esi
	movsd	(%rax,%rsi,8), %xmm2
	subsd	(%rax,%rdx,8), %xmm2
	mulsd	%xmm4, %xmm2
	mulsd	%xmm0, %xmm0
	mulsd	%xmm3, %xmm3
	addsd	%xmm3, %xmm0
	mulsd	%xmm2, %xmm2
	addsd	%xmm2, %xmm0
	mulsd	%xmm5, %xmm0
	sqrtsd	%xmm0, %xmm0
	movsd	%xmm0, 0(%rbp,%rdx,8)
	movq	%rdx, %rsi
	addq	$1, %rdx
	cmpq	%r14, %rsi
	jne	.L306
	movl	-8(%rsp), %r15d
	movl	-4(%rsp), %esi
.L305:
	cmpl	%ecx, %r9d
	jnb	.L299
	movsd	.LC5(%rip), %xmm2
	divsd	%xmm1, %xmm2
	movl	%r9d, %r11d
	subl	%r15d, %r11d
	subl	$1, %r11d
	leal	-1(%r9), %ebx
	movl	%r9d, %ebp
	leaq	0(,%rbp,8), %r10
	leal	1(%r9), %edx
	subq	%rbp, %rdx
	leaq	(%rax,%rdx,8), %r9
	movl	%edi, %edx
	movapd	%xmm2, %xmm4
	mulsd	.LC11(%rip), %xmm4
	leal	1(%r15,%rcx), %ebp
	movapd	%xmm4, %xmm5
	subl	%edi, %ecx
	movsd	.LC12(%rip), %xmm3
	jmp	.L311
.L307:
	movl	%ebx, %edi
	movsd	(%rax,%r10), %xmm0
	subsd	(%rax,%rdi,8), %xmm0
	mulsd	%xmm2, %xmm0
	jmp	.L308
.L309:
	movl	%r11d, %edi
	movsd	(%rax,%r10), %xmm1
	subsd	(%rax,%rdi,8), %xmm1
	mulsd	%xmm2, %xmm1
.L310:
	movl	%ecx, %edi
	subl	%edx, %edi
	movsd	(%rax,%r10), %xmm6
	subsd	(%rax,%rdi,8), %xmm6
	mulsd	%xmm2, %xmm6
	mulsd	%xmm0, %xmm0
	mulsd	%xmm6, %xmm6
	addsd	%xmm6, %xmm0
	mulsd	%xmm1, %xmm1
	addsd	%xmm1, %xmm0
	mulsd	%xmm3, %xmm0
	sqrtsd	%xmm0, %xmm0
	movsd	%xmm0, (%r8,%r10)
	addl	$1, %r11d
	addl	$1, %ebx
	addq	$8, %r10
	subl	$1, %edx
	je	.L299
.L311:
	cmpl	$1, %edx
	jbe	.L307
	movl	%ebx, %edi
	movsd	(%r9,%r10), %xmm0
	subsd	(%rax,%rdi,8), %xmm0
	mulsd	%xmm4, %xmm0
.L308:
	cmpl	%edx, %esi
	jnb	.L309
	movl	%ebp, %r12d
	subl	%edx, %r12d
	movl	%r11d, %edi
	movsd	(%rax,%r12,8), %xmm1
	subsd	(%rax,%rdi,8), %xmm1
	mulsd	%xmm5, %xmm1
	jmp	.L310
.L299:
	pxor	%xmm0, %xmm0
	popq	%rbx
	.cfi_def_cfa_offset 48
	popq	%rbp
	.cfi_def_cfa_offset 40
	popq	%r12
	.cfi_def_cfa_offset 32
	popq	%r13
	.cfi_def_cfa_offset 24
	popq	%r14
	.cfi_def_cfa_offset 16
	popq	%r15
	.cfi_def_cfa_offset 8
	ret
	.cfi_endproc
.LFE11153:
	.size	_ZN22basis_set_calculationsIdE15Gradient_threadEPdS1_j, .-_ZN22basis_set_calculationsIdE15Gradient_threadEPdS1_j
	.section	.text._ZN26basis_set_calculations_DFTIdE23Compute_gradient_threadEPdS1_j,"axG",@progbits,_ZN26basis_set_calculations_DFTIdE23Compute_gradient_threadEPdS1_j,comdat
	.align 2
	.weak	_ZN26basis_set_calculations_DFTIdE23Compute_gradient_threadEPdS1_j
	.type	_ZN26basis_set_calculations_DFTIdE23Compute_gradient_threadEPdS1_j, @function
_ZN26basis_set_calculations_DFTIdE23Compute_gradient_threadEPdS1_j:
.LFB11438:
	.cfi_startproc
	endbr64
	pushq	%r15
	.cfi_def_cfa_offset 16
	.cfi_offset 15, -16
	pushq	%r14
	.cfi_def_cfa_offset 24
	.cfi_offset 14, -24
	pushq	%r13
	.cfi_def_cfa_offset 32
	.cfi_offset 13, -32
	pushq	%r12
	.cfi_def_cfa_offset 40
	.cfi_offset 12, -40
	pushq	%rbp
	.cfi_def_cfa_offset 48
	.cfi_offset 6, -48
	pushq	%rbx
	.cfi_def_cfa_offset 56
	.cfi_offset 3, -56
	movq	%rsi, %rax
	movq	%rdx, %rsi
	movl	%ecx, %edx
	pxor	%xmm2, %xmm2
	cvtsi2sdq	%rdx, %xmm2
	movsd	200(%rdi), %xmm3
	divsd	%xmm2, %xmm3
	leal	(%rcx,%rcx), %r15d
	leal	1(%r15), %edi
	movl	%edi, %r8d
	imull	%edi, %r8d
	movl	%r8d, %r10d
	imull	%edi, %r10d
	testl	%r8d, %r8d
	je	.L333
	movsd	.LC5(%rip), %xmm4
	divsd	%xmm3, %xmm4
	movl	%r8d, %r11d
	movl	%r15d, %ecx
	movl	%r15d, %r14d
	negl	%r14d
	movl	%edi, %r9d
	movl	$0, %edx
	movapd	%xmm4, %xmm7
	mulsd	.LC11(%rip), %xmm7
	notl	%ecx
	movapd	%xmm7, %xmm8
	movsd	.LC12(%rip), %xmm5
	jmp	.L325
.L321:
	movsd	8(%rax), %xmm0
	subsd	(%rax), %xmm0
	mulsd	%xmm4, %xmm0
	jmp	.L322
.L323:
	movl	%r9d, %ebp
	movsd	(%rax,%rbp,8), %xmm6
	subsd	(%rax,%rdx,8), %xmm6
	mulsd	%xmm4, %xmm6
.L324:
	leal	(%r8,%rbx), %ebx
	movsd	(%rax,%rbx,8), %xmm1
	subsd	(%rax,%rdx,8), %xmm1
	mulsd	%xmm4, %xmm1
	movapd	%xmm1, %xmm9
	mulsd	%xmm1, %xmm9
	movapd	%xmm0, %xmm2
	mulsd	%xmm0, %xmm2
	addsd	%xmm9, %xmm2
	movapd	%xmm6, %xmm9
	mulsd	%xmm6, %xmm9
	addsd	%xmm9, %xmm2
	mulsd	%xmm5, %xmm2
	sqrtsd	%xmm2, %xmm2
	movsd	%xmm2, (%rsi,%rdx,8)
	addq	$1, %rdx
	addl	$1, %r9d
	cmpq	%r11, %rdx
	je	.L339
.L325:
	movl	%edx, %ebx
	testl	%edx, %edx
	je	.L321
	leal	-1(%rdx), %ebp
	movsd	8(%rax,%rdx,8), %xmm0
	subsd	(%rax,%rbp,8), %xmm0
	mulsd	%xmm7, %xmm0
.L322:
	cmpl	%edi, %ebx
	jb	.L323
	movl	%r9d, %r12d
	leal	(%rcx,%rbx), %ebp
	movsd	(%rax,%r12,8), %xmm6
	subsd	(%rax,%rbp,8), %xmm6
	mulsd	%xmm8, %xmm6
	jmp	.L324
.L339:
	movl	%r10d, %ebx
	subl	%r8d, %ebx
	cmpl	%ebx, %r8d
	jnb	.L334
	leal	-1(%r8), %edx
	movq	%rax, %rcx
	leal	-1(%rbx), %r13d
	movsd	.LC12(%rip), %xmm5
	leal	1(%r8), %r11d
	mulsd	.LC11(%rip), %xmm4
	movl	%r11d, %r12d
	leal	2(%r15), %ebp
	movl	%r15d, -4(%rsp)
.L326:
	movl	%edx, %r9d
	mulsd	%xmm0, %xmm0
	mulsd	%xmm6, %xmm6
	addsd	%xmm6, %xmm0
	mulsd	%xmm1, %xmm1
	addsd	%xmm1, %xmm0
	mulsd	%xmm5, %xmm0
	sqrtsd	%xmm0, %xmm0
	movsd	%xmm0, (%rsi,%r9,8)
	movsd	(%rcx,%r12,8), %xmm0
	subsd	(%rax,%r9,8), %xmm0
	mulsd	%xmm4, %xmm0
	leal	0(%rbp,%rdx), %r15d
	leal	(%rdx,%r14), %r9d
	movsd	(%rax,%r15,8), %xmm6
	subsd	(%rax,%r9,8), %xmm6
	mulsd	%xmm4, %xmm6
	leal	(%rdx,%r11), %r9d
	movsd	(%rax,%r9,8), %xmm1
	subsd	(%rcx), %xmm1
	mulsd	%xmm4, %xmm1
	addl	$1, %edx
	addq	$8, %rcx
	cmpl	%r13d, %edx
	jne	.L326
	movl	-4(%rsp), %r15d
	movl	%ebx, %edx
.L320:
	mulsd	%xmm0, %xmm0
	mulsd	%xmm6, %xmm6
	addsd	%xmm6, %xmm0
	mulsd	%xmm1, %xmm1
	addsd	%xmm1, %xmm0
	sqrtsd	%xmm0, %xmm0
	movl	%edx, %edx
	mulsd	.LC11(%rip), %xmm0
	movsd	%xmm0, (%rsi,%rdx,8)
	cmpl	%r10d, %ebx
	jnb	.L327
	movsd	.LC5(%rip), %xmm2
	divsd	%xmm3, %xmm2
	movl	%r10d, %edx
	subl	%ebx, %edx
	movl	%ebx, %r9d
	subl	%r15d, %r9d
	subl	$1, %r9d
	leal	-1(%rbx), %r11d
	movl	%ebx, %ebp
	leaq	0(,%rbp,8), %rcx
	leal	1(%rbx), %ebx
	subq	%rbp, %rbx
	leaq	(%rax,%rbx,8), %rbx
	movapd	%xmm2, %xmm3
	mulsd	.LC11(%rip), %xmm3
	leal	1(%r15,%r10), %ebp
	movapd	%xmm3, %xmm4
	subl	%r8d, %r10d
	jmp	.L332
.L333:
	movl	%r8d, %ebx
	movl	%r8d, %edx
	jmp	.L320
.L334:
	movl	%r8d, %edx
	jmp	.L320
.L328:
	movl	%r11d, %r8d
	movsd	(%rax,%rcx), %xmm0
	subsd	(%rax,%r8,8), %xmm0
	mulsd	%xmm2, %xmm0
	jmp	.L329
.L330:
	movl	%r9d, %r8d
	movsd	(%rax,%rcx), %xmm1
	subsd	(%rax,%r8,8), %xmm1
	mulsd	%xmm2, %xmm1
.L331:
	movl	%r10d, %r8d
	subl	%edx, %r8d
	movsd	(%rax,%rcx), %xmm5
	subsd	(%rax,%r8,8), %xmm5
	mulsd	%xmm2, %xmm5
	mulsd	%xmm0, %xmm0
	mulsd	%xmm5, %xmm5
	addsd	%xmm5, %xmm0
	mulsd	%xmm1, %xmm1
	addsd	%xmm1, %xmm0
	sqrtsd	%xmm0, %xmm0
	movsd	%xmm0, (%rsi,%rcx)
	addl	$1, %r9d
	addl	$1, %r11d
	addq	$8, %rcx
	subl	$1, %edx
	je	.L327
.L332:
	cmpl	$1, %edx
	jbe	.L328
	movl	%r11d, %r8d
	movsd	(%rbx,%rcx), %xmm0
	subsd	(%rax,%r8,8), %xmm0
	mulsd	%xmm3, %xmm0
.L329:
	cmpl	%edx, %edi
	jnb	.L330
	movl	%ebp, %r12d
	subl	%edx, %r12d
	movl	%r9d, %r8d
	movsd	(%rax,%r12,8), %xmm1
	subsd	(%rax,%r8,8), %xmm1
	mulsd	%xmm4, %xmm1
	jmp	.L331
.L327:
	pxor	%xmm0, %xmm0
	popq	%rbx
	.cfi_def_cfa_offset 48
	popq	%rbp
	.cfi_def_cfa_offset 40
	popq	%r12
	.cfi_def_cfa_offset 32
	popq	%r13
	.cfi_def_cfa_offset 24
	popq	%r14
	.cfi_def_cfa_offset 16
	popq	%r15
	.cfi_def_cfa_offset 8
	ret
	.cfi_endproc
.LFE11438:
	.size	_ZN26basis_set_calculations_DFTIdE23Compute_gradient_threadEPdS1_j, .-_ZN26basis_set_calculations_DFTIdE23Compute_gradient_threadEPdS1_j
	.section	.text._ZN26basis_set_calculations_DFTIdE17Compute_Fi_threadEPdS1_S1_j,"axG",@progbits,_ZN26basis_set_calculations_DFTIdE17Compute_Fi_threadEPdS1_S1_j,comdat
	.align 2
	.weak	_ZN26basis_set_calculations_DFTIdE17Compute_Fi_threadEPdS1_S1_j
	.type	_ZN26basis_set_calculations_DFTIdE17Compute_Fi_threadEPdS1_S1_j, @function
_ZN26basis_set_calculations_DFTIdE17Compute_Fi_threadEPdS1_S1_j:
.LFB11437:
	.cfi_startproc
	endbr64
	pushq	%r15
	.cfi_def_cfa_offset 16
	.cfi_offset 15, -16
	pushq	%r14
	.cfi_def_cfa_offset 24
	.cfi_offset 14, -24
	pushq	%r13
	.cfi_def_cfa_offset 32
	.cfi_offset 13, -32
	pushq	%r12
	.cfi_def_cfa_offset 40
	.cfi_offset 12, -40
	pushq	%rbp
	.cfi_def_cfa_offset 48
	.cfi_offset 6, -48
	pushq	%rbx
	.cfi_def_cfa_offset 56
	.cfi_offset 3, -56
	subq	$88, %rsp
	.cfi_def_cfa_offset 144
	movq	%rsi, %r15
	movq	%rcx, 72(%rsp)
	leal	1(%r8,%r8), %eax
	movl	%eax, %r13d
	imull	%eax, %r13d
	imull	%eax, %r13d
	cmpl	$7, %r13d
	jbe	.L341
	movq	%rsi, %rbx
	movq	%rdx, %rbp
	movq	%rcx, %r12
	leal	-8(%r13), %eax
	shrl	$3, %eax
	movl	%eax, %eax
	salq	$6, %rax
	leaq	64(%rsi,%rax), %r14
.L342:
	movsd	(%rbx), %xmm0
	movapd	%xmm0, %xmm2
	divsd	0(%rbp), %xmm2
	movsd	8(%rbx), %xmm0
	divsd	8(%rbp), %xmm0
	movsd	%xmm0, (%rsp)
	movsd	16(%rbx), %xmm0
	movapd	%xmm0, %xmm4
	divsd	16(%rbp), %xmm4
	movsd	%xmm4, 8(%rsp)
	movsd	24(%rbx), %xmm0
	movapd	%xmm0, %xmm5
	divsd	24(%rbp), %xmm5
	movsd	%xmm5, 16(%rsp)
	movsd	32(%rbx), %xmm0
	movapd	%xmm0, %xmm6
	divsd	32(%rbp), %xmm6
	movsd	%xmm6, 24(%rsp)
	movsd	40(%rbx), %xmm0
	movapd	%xmm0, %xmm7
	divsd	40(%rbp), %xmm7
	movsd	%xmm7, 32(%rsp)
	movsd	48(%rbx), %xmm0
	movapd	%xmm0, %xmm1
	divsd	48(%rbp), %xmm1
	movsd	%xmm1, 40(%rsp)
	movsd	56(%rbx), %xmm0
	divsd	56(%rbp), %xmm0
	movsd	%xmm0, 48(%rsp)
	movsd	.LC5(%rip), %xmm8
	movsd	%xmm2, 64(%rsp)
	addsd	%xmm2, %xmm8
	movapd	%xmm8, %xmm0
	movsd	.LC13(%rip), %xmm1
	call	pow@PLT
	movsd	%xmm0, 56(%rsp)
	movsd	.LC5(%rip), %xmm9
	subsd	64(%rsp), %xmm9
	movapd	%xmm9, %xmm0
	movsd	.LC13(%rip), %xmm1
	call	pow@PLT
	addsd	56(%rsp), %xmm0
	mulsd	.LC11(%rip), %xmm0
	movsd	%xmm0, (%r12)
	movsd	.LC5(%rip), %xmm2
	addsd	(%rsp), %xmm2
	movapd	%xmm2, %xmm0
	movsd	.LC13(%rip), %xmm1
	call	pow@PLT
	movsd	%xmm0, 56(%rsp)
	movsd	.LC5(%rip), %xmm2
	subsd	(%rsp), %xmm2
	movapd	%xmm2, %xmm0
	movsd	.LC13(%rip), %xmm1
	call	pow@PLT
	addsd	56(%rsp), %xmm0
	mulsd	.LC11(%rip), %xmm0
	movsd	%xmm0, 8(%r12)
	movsd	.LC5(%rip), %xmm2
	addsd	8(%rsp), %xmm2
	movapd	%xmm2, %xmm0
	movsd	.LC13(%rip), %xmm1
	call	pow@PLT
	movsd	%xmm0, (%rsp)
	movsd	.LC5(%rip), %xmm2
	subsd	8(%rsp), %xmm2
	movapd	%xmm2, %xmm0
	movsd	.LC13(%rip), %xmm1
	call	pow@PLT
	addsd	(%rsp), %xmm0
	mulsd	.LC11(%rip), %xmm0
	movsd	%xmm0, 16(%r12)
	movsd	.LC5(%rip), %xmm4
	addsd	16(%rsp), %xmm4
	movapd	%xmm4, %xmm0
	movsd	.LC13(%rip), %xmm1
	call	pow@PLT
	movsd	%xmm0, (%rsp)
	movsd	.LC5(%rip), %xmm4
	subsd	16(%rsp), %xmm4
	movapd	%xmm4, %xmm0
	movsd	.LC13(%rip), %xmm1
	call	pow@PLT
	addsd	(%rsp), %xmm0
	mulsd	.LC11(%rip), %xmm0
	movsd	%xmm0, 24(%r12)
	movsd	.LC5(%rip), %xmm5
	addsd	24(%rsp), %xmm5
	movapd	%xmm5, %xmm0
	movsd	.LC13(%rip), %xmm1
	call	pow@PLT
	movsd	%xmm0, (%rsp)
	movsd	.LC5(%rip), %xmm5
	subsd	24(%rsp), %xmm5
	movapd	%xmm5, %xmm0
	movsd	.LC13(%rip), %xmm1
	call	pow@PLT
	addsd	(%rsp), %xmm0
	mulsd	.LC11(%rip), %xmm0
	movsd	%xmm0, 32(%r12)
	movsd	.LC5(%rip), %xmm6
	addsd	32(%rsp), %xmm6
	movapd	%xmm6, %xmm0
	movsd	.LC13(%rip), %xmm1
	call	pow@PLT
	movsd	%xmm0, (%rsp)
	movsd	.LC5(%rip), %xmm6
	subsd	32(%rsp), %xmm6
	movapd	%xmm6, %xmm0
	movsd	.LC13(%rip), %xmm1
	call	pow@PLT
	addsd	(%rsp), %xmm0
	mulsd	.LC11(%rip), %xmm0
	movsd	%xmm0, 40(%r12)
	movsd	.LC5(%rip), %xmm7
	addsd	40(%rsp), %xmm7
	movapd	%xmm7, %xmm0
	movsd	.LC13(%rip), %xmm1
	call	pow@PLT
	movsd	%xmm0, (%rsp)
	movsd	.LC5(%rip), %xmm7
	subsd	40(%rsp), %xmm7
	movapd	%xmm7, %xmm0
	movsd	.LC13(%rip), %xmm1
	call	pow@PLT
	addsd	(%rsp), %xmm0
	mulsd	.LC11(%rip), %xmm0
	movsd	%xmm0, 48(%r12)
	movsd	.LC5(%rip), %xmm4
	addsd	48(%rsp), %xmm4
	movapd	%xmm4, %xmm0
	movsd	.LC13(%rip), %xmm1
	call	pow@PLT
	movsd	%xmm0, (%rsp)
	movsd	.LC5(%rip), %xmm5
	subsd	48(%rsp), %xmm5
	movapd	%xmm5, %xmm0
	movsd	.LC13(%rip), %xmm1
	call	pow@PLT
	addsd	(%rsp), %xmm0
	mulsd	.LC11(%rip), %xmm0
	movsd	%xmm0, 56(%r12)
	addq	$64, %rbx
	addq	$64, %rbp
	addq	$64, %r12
	cmpq	%r14, %rbx
	jne	.L342
.L341:
	movl	%r13d, %eax
	andl	$-8, %eax
	cmpl	%r13d, %eax
	jnb	.L343
	movl	%eax, %edx
	leaq	0(,%rdx,8), %rbp
	leaq	(%r15,%rbp), %rbx
	movq	72(%rsp), %rdi
	addq	%rbp, %rdi
	movq	%rdi, %rbp
	subl	$1, %r13d
	subl	%eax, %r13d
	addq	%rdx, %r13
	leaq	8(%r15,%r13,8), %r12
.L344:
	movsd	(%rbx), %xmm0
	movsd	.LC13(%rip), %xmm1
	call	pow@PLT
	movsd	.LC5(%rip), %xmm3
	movsd	%xmm0, 8(%rsp)
	addsd	%xmm0, %xmm3
	movapd	%xmm3, %xmm0
	movsd	.LC13(%rip), %xmm1
	call	pow@PLT
	movsd	%xmm0, (%rsp)
	movsd	.LC5(%rip), %xmm3
	subsd	8(%rsp), %xmm3
	movapd	%xmm3, %xmm0
	movsd	.LC13(%rip), %xmm1
	call	pow@PLT
	addsd	(%rsp), %xmm0
	mulsd	.LC11(%rip), %xmm0
	movsd	%xmm0, 0(%rbp)
	addq	$8, %rbx
	addq	$8, %rbp
	cmpq	%r12, %rbx
	jne	.L344
.L343:
	pxor	%xmm0, %xmm0
	addq	$88, %rsp
	.cfi_def_cfa_offset 56
	popq	%rbx
	.cfi_def_cfa_offset 48
	popq	%rbp
	.cfi_def_cfa_offset 40
	popq	%r12
	.cfi_def_cfa_offset 32
	popq	%r13
	.cfi_def_cfa_offset 24
	popq	%r14
	.cfi_def_cfa_offset 16
	popq	%r15
	.cfi_def_cfa_offset 8
	ret
	.cfi_endproc
.LFE11437:
	.size	_ZN26basis_set_calculations_DFTIdE17Compute_Fi_threadEPdS1_S1_j, .-_ZN26basis_set_calculations_DFTIdE17Compute_Fi_threadEPdS1_S1_j
	.section	.text._ZN26basis_set_calculations_DFTIdE10PBE_threadEPdS1_S1_jS1_S1_d,"axG",@progbits,_ZN26basis_set_calculations_DFTIdE10PBE_threadEPdS1_S1_jS1_S1_d,comdat
	.align 2
	.weak	_ZN26basis_set_calculations_DFTIdE10PBE_threadEPdS1_S1_jS1_S1_d
	.type	_ZN26basis_set_calculations_DFTIdE10PBE_threadEPdS1_S1_jS1_S1_d, @function
_ZN26basis_set_calculations_DFTIdE10PBE_threadEPdS1_S1_jS1_S1_d:
.LFB11440:
	.cfi_startproc
	endbr64
	pushq	%r15
	.cfi_def_cfa_offset 16
	.cfi_offset 15, -16
	pushq	%r14
	.cfi_def_cfa_offset 24
	.cfi_offset 14, -24
	pushq	%r13
	.cfi_def_cfa_offset 32
	.cfi_offset 13, -32
	pushq	%r12
	.cfi_def_cfa_offset 40
	.cfi_offset 12, -40
	pushq	%rbp
	.cfi_def_cfa_offset 48
	.cfi_offset 6, -48
	pushq	%rbx
	.cfi_def_cfa_offset 56
	.cfi_offset 3, -56
	subq	$104, %rsp
	.cfi_def_cfa_offset 160
	movq	%rdi, %r13
	movq	%rsi, %r12
	movq	%rdx, 48(%rsp)
	movq	%rcx, %r14
	movq	%r9, 88(%rsp)
	leal	1(%r8,%r8), %eax
	movl	%eax, %ebx
	imull	%eax, %ebx
	imull	%eax, %ebx
	movsd	144(%rdi), %xmm1
	movq	80(%rdi), %rbp
	movq	%rbp, %xmm5
	movq	%rbp, %xmm7
	mulsd	%xmm5, %xmm5
	movapd	%xmm1, %xmm2
	mulsd	%xmm1, %xmm2
	mulsd	.LC14(%rip), %xmm1
	mulsd	%xmm1, %xmm2
	movapd	%xmm0, %xmm1
	mulsd	%xmm0, %xmm1
	mulsd	%xmm7, %xmm0
	mulsd	%xmm1, %xmm0
	divsd	%xmm0, %xmm2
	movsd	%xmm2, 24(%rsp)
	movapd	%xmm2, %xmm0
	mulsd	.LC15(%rip), %xmm0
	movsd	%xmm5, 16(%rsp)
	mulsd	%xmm5, %xmm0
	call	cbrt@PLT
	movsd	%xmm0, 8(%rsp)
	movsd	16(%rsp), %xmm5
	mulsd	.LC16(%rip), %xmm5
	movapd	%xmm5, %xmm0
	call	cbrt@PLT
	movsd	%xmm0, 16(%rsp)
	movsd	.LC11(%rip), %xmm0
	movapd	%xmm0, %xmm7
	divsd	8(%rsp), %xmm7
	movsd	%xmm7, 32(%rsp)
	movsd	3168(%r13), %xmm6
	movsd	3192(%r13), %xmm0
	xorpd	.LC17(%rip), %xmm0
	movsd	%xmm6, 80(%rsp)
	divsd	%xmm6, %xmm0
	call	exp@PLT
	movsd	3160(%r13), %xmm3
	divsd	80(%rsp), %xmm3
	mulsd	%xmm0, %xmm3
	movsd	16(%rsp), %xmm4
	mulsd	%xmm4, %xmm4
	mulsd	%xmm4, %xmm3
	movsd	.LC18(%rip), %xmm4
	mulsd	112(%r13), %xmm4
	mulsd	8(%rsp), %xmm4
	movq	%rbp, %xmm6
	divsd	%xmm6, %xmm4
	testl	%ebx, %ebx
	je	.L355
	movl	%ebx, %ebx
	leaq	0(,%rbx,8), %r15
	movl	$0, %ebx
	movq	$0x000000000, 40(%rsp)
	movq	$0x000000000, 8(%rsp)
	movsd	32(%rsp), %xmm7
	divsd	24(%rsp), %xmm7
	movsd	%xmm7, 56(%rsp)
	movsd	%xmm3, 64(%rsp)
	movsd	%xmm4, 72(%rsp)
	jmp	.L354
.L352:
	movsd	3176(%r13), %xmm2
	movapd	%xmm2, %xmm1
	addsd	.LC5(%rip), %xmm1
	movsd	16(%rsp), %xmm0
	mulsd	3184(%r13), %xmm0
	divsd	%xmm2, %xmm0
	addsd	.LC5(%rip), %xmm0
	divsd	%xmm0, %xmm2
	subsd	%xmm2, %xmm1
	movq	%rbp, %xmm0
	mulsd	72(%rsp), %xmm0
	mulsd	%xmm1, %xmm0
	addsd	8(%rsp), %xmm0
	movsd	%xmm0, 8(%rsp)
.L350:
	addq	$8, %rbx
	cmpq	%rbx, %r15
	je	.L349
.L354:
	movq	(%r14,%rbx), %rbp
	movq	%rbp, %xmm4
	pxor	%xmm7, %xmm7
	ucomisd	%xmm7, %xmm4
	jp	.L356
	je	.L350
.L356:
	movsd	56(%rsp), %xmm0
	mulsd	(%r12,%rbx), %xmm0
	movapd	%xmm0, %xmm3
	mulsd	%xmm0, %xmm3
	movsd	%xmm3, 16(%rsp)
	movq	48(%rsp), %rax
	movsd	(%rax,%rbx), %xmm5
	movsd	%xmm5, 32(%rsp)
	mulsd	%xmm5, %xmm5
	movsd	%xmm5, 24(%rsp)
	divsd	%xmm5, %xmm3
	movapd	%xmm3, %xmm1
	movsd	64(%rsp), %xmm0
	call	pow@PLT
	movapd	%xmm0, %xmm1
	addsd	.LC5(%rip), %xmm1
	mulsd	%xmm0, %xmm1
	movsd	.LC5(%rip), %xmm0
	divsd	%xmm1, %xmm0
	addsd	.LC5(%rip), %xmm0
	call	log@PLT
	ucomisd	%xmm0, %xmm0
	jp	.L352
	movapd	%xmm0, %xmm1
	andpd	.LC9(%rip), %xmm1
	ucomisd	.LC10(%rip), %xmm1
	ja	.L352
	movq	%rbp, %xmm1
	mulsd	32(%rsp), %xmm1
	movsd	24(%rsp), %xmm2
	mulsd	80(%rsp), %xmm2
	mulsd	%xmm2, %xmm1
	mulsd	%xmm1, %xmm0
	addsd	40(%rsp), %xmm0
	movsd	%xmm0, 40(%rsp)
	jmp	.L352
.L355:
	movq	$0x000000000, 40(%rsp)
	movq	$0x000000000, 8(%rsp)
.L349:
	movq	88(%rsp), %rax
	movsd	8(%rsp), %xmm7
	movsd	%xmm7, (%rax)
	movq	160(%rsp), %rax
	movsd	40(%rsp), %xmm4
	movsd	%xmm4, (%rax)
	pxor	%xmm0, %xmm0
	addq	$104, %rsp
	.cfi_def_cfa_offset 56
	popq	%rbx
	.cfi_def_cfa_offset 48
	popq	%rbp
	.cfi_def_cfa_offset 40
	popq	%r12
	.cfi_def_cfa_offset 32
	popq	%r13
	.cfi_def_cfa_offset 24
	popq	%r14
	.cfi_def_cfa_offset 16
	popq	%r15
	.cfi_def_cfa_offset 8
	ret
	.cfi_endproc
.LFE11440:
	.size	_ZN26basis_set_calculations_DFTIdE10PBE_threadEPdS1_S1_jS1_S1_d, .-_ZN26basis_set_calculations_DFTIdE10PBE_threadEPdS1_S1_jS1_S1_d
	.section	.text._ZNSt6thread11_State_implINS_8_InvokerISt5tupleIJM26basis_set_calculations_DFTIdEFdPPdS5_jjjSt6vectorIdSaIdEES7_IiSaIiEEbEPS4_S6_S5_jjjS9_SB_bEEEEED2Ev,"axG",@progbits,_ZNSt6thread11_State_implINS_8_InvokerISt5tupleIJM26basis_set_calculations_DFTIdEFdPPdS5_jjjSt6vectorIdSaIdEES7_IiSaIiEEbEPS4_S6_S5_jjjS9_SB_bEEEEED5Ev,comdat
	.align 2
	.weak	_ZNSt6thread11_State_implINS_8_InvokerISt5tupleIJM26basis_set_calculations_DFTIdEFdPPdS5_jjjSt6vectorIdSaIdEES7_IiSaIiEEbEPS4_S6_S5_jjjS9_SB_bEEEEED2Ev
	.type	_ZNSt6thread11_State_implINS_8_InvokerISt5tupleIJM26basis_set_calculations_DFTIdEFdPPdS5_jjjSt6vectorIdSaIdEES7_IiSaIiEEbEPS4_S6_S5_jjjS9_SB_bEEEEED2Ev, @function
_ZNSt6thread11_State_implINS_8_InvokerISt5tupleIJM26basis_set_calculations_DFTIdEFdPPdS5_jjjSt6vectorIdSaIdEES7_IiSaIiEEbEPS4_S6_S5_jjjS9_SB_bEEEEED2Ev:
.LFB15345:
	.cfi_startproc
	endbr64
	pushq	%rbx
	.cfi_def_cfa_offset 16
	.cfi_offset 3, -16
	movq	%rdi, %rbx
	leaq	16+_ZTVNSt6thread11_State_implINS_8_InvokerISt5tupleIJM26basis_set_calculations_DFTIdEFdPPdS5_jjjSt6vectorIdSaIdEES7_IiSaIiEEbEPS4_S6_S5_jjjS9_SB_bEEEEEE(%rip), %rax
	movq	%rax, (%rdi)
	movq	40(%rdi), %rdi
	testq	%rdi, %rdi
	je	.L361
	movq	56(%rbx), %rsi
	subq	%rdi, %rsi
	call	_ZdlPvm@PLT
.L361:
	movq	16(%rbx), %rdi
	testq	%rdi, %rdi
	je	.L362
	movq	32(%rbx), %rsi
	subq	%rdi, %rsi
	call	_ZdlPvm@PLT
.L362:
	movq	%rbx, %rdi
	call	_ZNSt6thread6_StateD2Ev@PLT
	popq	%rbx
	.cfi_def_cfa_offset 8
	ret
	.cfi_endproc
.LFE15345:
	.size	_ZNSt6thread11_State_implINS_8_InvokerISt5tupleIJM26basis_set_calculations_DFTIdEFdPPdS5_jjjSt6vectorIdSaIdEES7_IiSaIiEEbEPS4_S6_S5_jjjS9_SB_bEEEEED2Ev, .-_ZNSt6thread11_State_implINS_8_InvokerISt5tupleIJM26basis_set_calculations_DFTIdEFdPPdS5_jjjSt6vectorIdSaIdEES7_IiSaIiEEbEPS4_S6_S5_jjjS9_SB_bEEEEED2Ev
	.weak	_ZNSt6thread11_State_implINS_8_InvokerISt5tupleIJM26basis_set_calculations_DFTIdEFdPPdS5_jjjSt6vectorIdSaIdEES7_IiSaIiEEbEPS4_S6_S5_jjjS9_SB_bEEEEED1Ev
	.set	_ZNSt6thread11_State_implINS_8_InvokerISt5tupleIJM26basis_set_calculations_DFTIdEFdPPdS5_jjjSt6vectorIdSaIdEES7_IiSaIiEEbEPS4_S6_S5_jjjS9_SB_bEEEEED1Ev,_ZNSt6thread11_State_implINS_8_InvokerISt5tupleIJM26basis_set_calculations_DFTIdEFdPPdS5_jjjSt6vectorIdSaIdEES7_IiSaIiEEbEPS4_S6_S5_jjjS9_SB_bEEEEED2Ev
	.section	.text._ZNSt6thread11_State_implINS_8_InvokerISt5tupleIJM26basis_set_calculations_DFTIdEFdPPdS5_jjjSt6vectorIdSaIdEES7_IiSaIiEEbEPS4_S6_S5_jjjS9_SB_bEEEEED0Ev,"axG",@progbits,_ZNSt6thread11_State_implINS_8_InvokerISt5tupleIJM26basis_set_calculations_DFTIdEFdPPdS5_jjjSt6vectorIdSaIdEES7_IiSaIiEEbEPS4_S6_S5_jjjS9_SB_bEEEEED5Ev,comdat
	.align 2
	.weak	_ZNSt6thread11_State_implINS_8_InvokerISt5tupleIJM26basis_set_calculations_DFTIdEFdPPdS5_jjjSt6vectorIdSaIdEES7_IiSaIiEEbEPS4_S6_S5_jjjS9_SB_bEEEEED0Ev
	.type	_ZNSt6thread11_State_implINS_8_InvokerISt5tupleIJM26basis_set_calculations_DFTIdEFdPPdS5_jjjSt6vectorIdSaIdEES7_IiSaIiEEbEPS4_S6_S5_jjjS9_SB_bEEEEED0Ev, @function
_ZNSt6thread11_State_implINS_8_InvokerISt5tupleIJM26basis_set_calculations_DFTIdEFdPPdS5_jjjSt6vectorIdSaIdEES7_IiSaIiEEbEPS4_S6_S5_jjjS9_SB_bEEEEED0Ev:
.LFB15347:
	.cfi_startproc
	endbr64
	pushq	%rbx
	.cfi_def_cfa_offset 16
	.cfi_offset 3, -16
	movq	%rdi, %rbx
	leaq	16+_ZTVNSt6thread11_State_implINS_8_InvokerISt5tupleIJM26basis_set_calculations_DFTIdEFdPPdS5_jjjSt6vectorIdSaIdEES7_IiSaIiEEbEPS4_S6_S5_jjjS9_SB_bEEEEEE(%rip), %rax
	movq	%rax, (%rdi)
	movq	40(%rdi), %rdi
	testq	%rdi, %rdi
	je	.L365
	movq	56(%rbx), %rsi
	subq	%rdi, %rsi
	call	_ZdlPvm@PLT
.L365:
	movq	16(%rbx), %rdi
	testq	%rdi, %rdi
	je	.L366
	movq	32(%rbx), %rsi
	subq	%rdi, %rsi
	call	_ZdlPvm@PLT
.L366:
	movq	%rbx, %rdi
	call	_ZNSt6thread6_StateD2Ev@PLT
	movl	$120, %esi
	movq	%rbx, %rdi
	call	_ZdlPvm@PLT
	popq	%rbx
	.cfi_def_cfa_offset 8
	ret
	.cfi_endproc
.LFE15347:
	.size	_ZNSt6thread11_State_implINS_8_InvokerISt5tupleIJM26basis_set_calculations_DFTIdEFdPPdS5_jjjSt6vectorIdSaIdEES7_IiSaIiEEbEPS4_S6_S5_jjjS9_SB_bEEEEED0Ev, .-_ZNSt6thread11_State_implINS_8_InvokerISt5tupleIJM26basis_set_calculations_DFTIdEFdPPdS5_jjjSt6vectorIdSaIdEES7_IiSaIiEEbEPS4_S6_S5_jjjS9_SB_bEEEEED0Ev
	.section	.text._ZNSt6thread11_State_implINS_8_InvokerISt5tupleIJM26basis_set_calculations_DFTIdEFdSt6vectorIPdSaIS6_EES8_S5_IjSaIjEEjS5_IdSaIdEES5_IiSaIiEEbEPS4_S8_S8_SA_jSC_SE_bEEEEED2Ev,"axG",@progbits,_ZNSt6thread11_State_implINS_8_InvokerISt5tupleIJM26basis_set_calculations_DFTIdEFdSt6vectorIPdSaIS6_EES8_S5_IjSaIjEEjS5_IdSaIdEES5_IiSaIiEEbEPS4_S8_S8_SA_jSC_SE_bEEEEED5Ev,comdat
	.align 2
	.weak	_ZNSt6thread11_State_implINS_8_InvokerISt5tupleIJM26basis_set_calculations_DFTIdEFdSt6vectorIPdSaIS6_EES8_S5_IjSaIjEEjS5_IdSaIdEES5_IiSaIiEEbEPS4_S8_S8_SA_jSC_SE_bEEEEED2Ev
	.type	_ZNSt6thread11_State_implINS_8_InvokerISt5tupleIJM26basis_set_calculations_DFTIdEFdSt6vectorIPdSaIS6_EES8_S5_IjSaIjEEjS5_IdSaIdEES5_IiSaIiEEbEPS4_S8_S8_SA_jSC_SE_bEEEEED2Ev, @function
_ZNSt6thread11_State_implINS_8_InvokerISt5tupleIJM26basis_set_calculations_DFTIdEFdSt6vectorIPdSaIS6_EES8_S5_IjSaIjEEjS5_IdSaIdEES5_IiSaIiEEbEPS4_S8_S8_SA_jSC_SE_bEEEEED2Ev:
.LFB15329:
	.cfi_startproc
	endbr64
	pushq	%rbx
	.cfi_def_cfa_offset 16
	.cfi_offset 3, -16
	movq	%rdi, %rbx
	leaq	16+_ZTVNSt6thread11_State_implINS_8_InvokerISt5tupleIJM26basis_set_calculations_DFTIdEFdSt6vectorIPdSaIS6_EES8_S5_IjSaIjEEjS5_IdSaIdEES5_IiSaIiEEbEPS4_S8_S8_SA_jSC_SE_bEEEEEE(%rip), %rax
	movq	%rax, (%rdi)
	movq	120(%rdi), %rdi
	testq	%rdi, %rdi
	je	.L369
	movq	136(%rbx), %rsi
	subq	%rdi, %rsi
	call	_ZdlPvm@PLT
.L369:
	movq	96(%rbx), %rdi
	testq	%rdi, %rdi
	je	.L370
	movq	112(%rbx), %rsi
	subq	%rdi, %rsi
	call	_ZdlPvm@PLT
.L370:
	movq	72(%rbx), %rdi
	testq	%rdi, %rdi
	je	.L371
	movq	88(%rbx), %rsi
	subq	%rdi, %rsi
	call	_ZdlPvm@PLT
.L371:
	movq	40(%rbx), %rdi
	testq	%rdi, %rdi
	je	.L372
	movq	56(%rbx), %rsi
	subq	%rdi, %rsi
	call	_ZdlPvm@PLT
.L372:
	movq	16(%rbx), %rdi
	testq	%rdi, %rdi
	je	.L373
	movq	32(%rbx), %rsi
	subq	%rdi, %rsi
	call	_ZdlPvm@PLT
.L373:
	movq	%rbx, %rdi
	call	_ZNSt6thread6_StateD2Ev@PLT
	popq	%rbx
	.cfi_def_cfa_offset 8
	ret
	.cfi_endproc
.LFE15329:
	.size	_ZNSt6thread11_State_implINS_8_InvokerISt5tupleIJM26basis_set_calculations_DFTIdEFdSt6vectorIPdSaIS6_EES8_S5_IjSaIjEEjS5_IdSaIdEES5_IiSaIiEEbEPS4_S8_S8_SA_jSC_SE_bEEEEED2Ev, .-_ZNSt6thread11_State_implINS_8_InvokerISt5tupleIJM26basis_set_calculations_DFTIdEFdSt6vectorIPdSaIS6_EES8_S5_IjSaIjEEjS5_IdSaIdEES5_IiSaIiEEbEPS4_S8_S8_SA_jSC_SE_bEEEEED2Ev
	.weak	_ZNSt6thread11_State_implINS_8_InvokerISt5tupleIJM26basis_set_calculations_DFTIdEFdSt6vectorIPdSaIS6_EES8_S5_IjSaIjEEjS5_IdSaIdEES5_IiSaIiEEbEPS4_S8_S8_SA_jSC_SE_bEEEEED1Ev
	.set	_ZNSt6thread11_State_implINS_8_InvokerISt5tupleIJM26basis_set_calculations_DFTIdEFdSt6vectorIPdSaIS6_EES8_S5_IjSaIjEEjS5_IdSaIdEES5_IiSaIiEEbEPS4_S8_S8_SA_jSC_SE_bEEEEED1Ev,_ZNSt6thread11_State_implINS_8_InvokerISt5tupleIJM26basis_set_calculations_DFTIdEFdSt6vectorIPdSaIS6_EES8_S5_IjSaIjEEjS5_IdSaIdEES5_IiSaIiEEbEPS4_S8_S8_SA_jSC_SE_bEEEEED2Ev
	.section	.text._ZNSt6thread11_State_implINS_8_InvokerISt5tupleIJM26basis_set_calculations_DFTIdEFdSt6vectorIPdSaIS6_EES8_S5_IjSaIjEEjS5_IdSaIdEES5_IiSaIiEEbEPS4_S8_S8_SA_jSC_SE_bEEEEED0Ev,"axG",@progbits,_ZNSt6thread11_State_implINS_8_InvokerISt5tupleIJM26basis_set_calculations_DFTIdEFdSt6vectorIPdSaIS6_EES8_S5_IjSaIjEEjS5_IdSaIdEES5_IiSaIiEEbEPS4_S8_S8_SA_jSC_SE_bEEEEED5Ev,comdat
	.align 2
	.weak	_ZNSt6thread11_State_implINS_8_InvokerISt5tupleIJM26basis_set_calculations_DFTIdEFdSt6vectorIPdSaIS6_EES8_S5_IjSaIjEEjS5_IdSaIdEES5_IiSaIiEEbEPS4_S8_S8_SA_jSC_SE_bEEEEED0Ev
	.type	_ZNSt6thread11_State_implINS_8_InvokerISt5tupleIJM26basis_set_calculations_DFTIdEFdSt6vectorIPdSaIS6_EES8_S5_IjSaIjEEjS5_IdSaIdEES5_IiSaIiEEbEPS4_S8_S8_SA_jSC_SE_bEEEEED0Ev, @function
_ZNSt6thread11_State_implINS_8_InvokerISt5tupleIJM26basis_set_calculations_DFTIdEFdSt6vectorIPdSaIS6_EES8_S5_IjSaIjEEjS5_IdSaIdEES5_IiSaIiEEbEPS4_S8_S8_SA_jSC_SE_bEEEEED0Ev:
.LFB15331:
	.cfi_startproc
	endbr64
	pushq	%rbx
	.cfi_def_cfa_offset 16
	.cfi_offset 3, -16
	movq	%rdi, %rbx
	leaq	16+_ZTVNSt6thread11_State_implINS_8_InvokerISt5tupleIJM26basis_set_calculations_DFTIdEFdSt6vectorIPdSaIS6_EES8_S5_IjSaIjEEjS5_IdSaIdEES5_IiSaIiEEbEPS4_S8_S8_SA_jSC_SE_bEEEEEE(%rip), %rax
	movq	%rax, (%rdi)
	movq	120(%rdi), %rdi
	testq	%rdi, %rdi
	je	.L376
	movq	136(%rbx), %rsi
	subq	%rdi, %rsi
	call	_ZdlPvm@PLT
.L376:
	movq	96(%rbx), %rdi
	testq	%rdi, %rdi
	je	.L377
	movq	112(%rbx), %rsi
	subq	%rdi, %rsi
	call	_ZdlPvm@PLT
.L377:
	movq	72(%rbx), %rdi
	testq	%rdi, %rdi
	je	.L378
	movq	88(%rbx), %rsi
	subq	%rdi, %rsi
	call	_ZdlPvm@PLT
.L378:
	movq	40(%rbx), %rdi
	testq	%rdi, %rdi
	je	.L379
	movq	56(%rbx), %rsi
	subq	%rdi, %rsi
	call	_ZdlPvm@PLT
.L379:
	movq	16(%rbx), %rdi
	testq	%rdi, %rdi
	je	.L380
	movq	32(%rbx), %rsi
	subq	%rdi, %rsi
	call	_ZdlPvm@PLT
.L380:
	movq	%rbx, %rdi
	call	_ZNSt6thread6_StateD2Ev@PLT
	movl	$168, %esi
	movq	%rbx, %rdi
	call	_ZdlPvm@PLT
	popq	%rbx
	.cfi_def_cfa_offset 8
	ret
	.cfi_endproc
.LFE15331:
	.size	_ZNSt6thread11_State_implINS_8_InvokerISt5tupleIJM26basis_set_calculations_DFTIdEFdSt6vectorIPdSaIS6_EES8_S5_IjSaIjEEjS5_IdSaIdEES5_IiSaIiEEbEPS4_S8_S8_SA_jSC_SE_bEEEEED0Ev, .-_ZNSt6thread11_State_implINS_8_InvokerISt5tupleIJM26basis_set_calculations_DFTIdEFdSt6vectorIPdSaIS6_EES8_S5_IjSaIjEEjS5_IdSaIdEES5_IiSaIiEEbEPS4_S8_S8_SA_jSC_SE_bEEEEED0Ev
	.section	.text._ZN22basis_set_calculationsIdE11DeterminantEjPdS1_S1_S1_S1_,"axG",@progbits,_ZN22basis_set_calculationsIdE11DeterminantEjPdS1_S1_S1_S1_,comdat
	.align 2
	.weak	_ZN22basis_set_calculationsIdE11DeterminantEjPdS1_S1_S1_S1_
	.type	_ZN22basis_set_calculationsIdE11DeterminantEjPdS1_S1_S1_S1_, @function
_ZN22basis_set_calculationsIdE11DeterminantEjPdS1_S1_S1_S1_:
.LFB11034:
	.cfi_startproc
	.cfi_personality 0x9b,DW.ref.__gxx_personality_v0
	.cfi_lsda 0x1b,.LLSDA11034
	endbr64
	pushq	%r15
	.cfi_def_cfa_offset 16
	.cfi_offset 15, -16
	pushq	%r14
	.cfi_def_cfa_offset 24
	.cfi_offset 14, -24
	pushq	%r13
	.cfi_def_cfa_offset 32
	.cfi_offset 13, -32
	pushq	%r12
	.cfi_def_cfa_offset 40
	.cfi_offset 12, -40
	pushq	%rbp
	.cfi_def_cfa_offset 48
	.cfi_offset 6, -48
	pushq	%rbx
	.cfi_def_cfa_offset 56
	.cfi_offset 3, -56
	leaq	-65536(%rsp), %r11
	.cfi_def_cfa 11, 65592
.LPSRL0:
	subq	$4096, %rsp
	orq	$0, (%rsp)
	cmpq	%r11, %rsp
	jne	.LPSRL0
	.cfi_def_cfa_register 7
	subq	$168, %rsp
	.cfi_def_cfa_offset 65760
	movq	%rdi, 8(%rsp)
	movl	%esi, 60(%rsp)
	movq	%rdx, %r12
	movq	%rcx, %r13
	movq	65760(%rsp), %rax
	movq	%fs:40, %rcx
	movq	%rcx, 65688(%rsp)
	xorl	%ecx, %ecx
	cmpl	$2, %esi
	je	.L383
	movq	%r8, %rbp
	movq	%r9, %rdx
	ja	.L384
	movsd	.LC4(%rip), %xmm7
	movsd	%xmm7, (%rsp)
	testl	%esi, %esi
	je	.L382
	movsd	(%r12), %xmm7
	movsd	%xmm7, (%rsp)
.L382:
	movq	65688(%rsp), %rax
	subq	%fs:40, %rax
	jne	.L508
	movsd	(%rsp), %xmm0
	addq	$65704, %rsp
	.cfi_remember_state
	.cfi_def_cfa_offset 56
	popq	%rbx
	.cfi_def_cfa_offset 48
	popq	%rbp
	.cfi_def_cfa_offset 40
	popq	%r12
	.cfi_def_cfa_offset 32
	popq	%r13
	.cfi_def_cfa_offset 24
	popq	%r14
	.cfi_def_cfa_offset 16
	popq	%r15
	.cfi_def_cfa_offset 8
	ret
.L384:
	.cfi_restore_state
	cmpl	$3, 60(%rsp)
	jne	.L509
	movsd	(%r12), %xmm5
	movsd	%xmm5, 32912(%rsp)
	movsd	8(%r12), %xmm4
	movsd	%xmm4, 32920(%rsp)
	movsd	16(%r12), %xmm0
	movsd	%xmm0, 32928(%rsp)
	movsd	24(%r12), %xmm3
	movsd	%xmm3, 32952(%rsp)
	movsd	32(%r12), %xmm2
	movsd	%xmm2, 32960(%rsp)
	movsd	40(%r12), %xmm0
	movsd	%xmm0, 32968(%rsp)
	movsd	48(%r12), %xmm1
	movsd	%xmm1, 32992(%rsp)
	movsd	56(%r12), %xmm0
	movsd	%xmm0, 33000(%rsp)
	movsd	64(%r12), %xmm6
	movsd	%xmm6, 33008(%rsp)
	movsd	%xmm5, 32936(%rsp)
	movsd	%xmm4, 32944(%rsp)
	movsd	%xmm3, 32976(%rsp)
	movsd	%xmm2, 32984(%rsp)
	movsd	%xmm1, 33016(%rsp)
	movsd	%xmm0, 33024(%rsp)
	leaq	32912(%rsp), %rax
	leaq	32936(%rsp), %rcx
	movq	%rax, %rdx
	movq	$0x000000000, (%rsp)
	pxor	%xmm1, %xmm1
.L389:
	movsd	(%rdx), %xmm0
	mulsd	48(%rdx), %xmm0
	mulsd	96(%rdx), %xmm0
	addsd	%xmm0, %xmm1
	addq	$8, %rdx
	cmpq	%rcx, %rdx
	jne	.L389
.L390:
	movsd	48(%rax), %xmm0
	mulsd	80(%rax), %xmm0
	mulsd	16(%rax), %xmm0
	subsd	%xmm0, %xmm1
	addq	$8, %rax
	cmpq	%rcx, %rax
	jne	.L390
	movsd	%xmm1, (%rsp)
	jmp	.L382
.L383:
	movsd	(%rdx), %xmm0
	movapd	%xmm0, %xmm1
	mulsd	24(%rdx), %xmm1
	movsd	8(%rdx), %xmm0
	mulsd	16(%rdx), %xmm0
	subsd	%xmm0, %xmm1
	movsd	%xmm1, (%rsp)
	jmp	.L382
.L509:
	movl	60(%rsp), %ebx
	leal	-4(%rbx), %ecx
	cmpl	$3, %ecx
	jbe	.L510
	movl	60(%rsp), %ebx
	leal	-8(%rbx), %esi
	cmpl	$56, %esi
	ja	.L511
	movl	60(%rsp), %eax
	movl	%eax, %edx
	imull	%eax, %edx
	movl	$0, %eax
	movsd	.LC5(%rip), %xmm1
.L401:
	movsd	(%r12,%rax,8), %xmm0
	movsd	%xmm0, 144(%rsp,%rax,8)
	movsd	%xmm1, 32912(%rsp,%rax,8)
	addq	$1, %rax
	cmpl	%edx, %eax
	jb	.L401
	movl	60(%rsp), %edi
	leal	1(%rdi), %ebp
	movl	$0, %ecx
	movl	$0, %eax
	movl	$1, %r12d
	movl	$0, %r9d
	leal	-1(%rdi), %edx
	pxor	%xmm3, %xmm3
	andl	$-8, %esi
	leal	8(%rsi), %ebx
	movl	%edi, %esi
	movl	%edi, %r11d
	andl	$-8, %r11d
	movq	.LC5(%rip), %r15
	movl	%r12d, 72(%rsp)
	movl	%ebp, %r12d
	movl	%ebx, %ebp
	movl	%r11d, %ebx
	movl	%r10d, %r11d
	movl	%r9d, %r10d
	jmp	.L402
.L510:
	leal	-1(%rbx), %r14d
	movl	%r14d, %edi
	imull	%r14d, %edi
	salq	$3, %rdi
.LEHB0:
	call	_Znam@PLT
.LEHE0:
	movq	%rax, %r15
.L453:
	movl	$0, 16(%rsp)
	movl	$0, %r13d
	movq	$0x000000000, (%rsp)
	movl	%r14d, 24(%rsp)
	movl	60(%rsp), %r14d
	jmp	.L392
.L393:
	leal	1(%rbx), %ebp
	addl	%r14d, %eax
	cmpl	%ebp, %r14d
	je	.L512
	movl	%ebp, %ebx
.L394:
	cmpl	%r13d, %ebx
	je	.L393
	movl	%r9d, %ecx
	imull	%edx, %ecx
	leal	(%rcx,%r8), %ecx
	movl	%eax, %edi
	movsd	(%r12,%rdi,8), %xmm0
	movsd	%xmm0, (%r15,%rcx,8)
	addl	$1, %edx
	jmp	.L393
.L512:
	leal	1(%rsi), %eax
	cmpl	%ebx, %esi
	je	.L395
	movl	%eax, %esi
.L400:
	leal	-1(%rsi), %r8d
	movl	%esi, %eax
	movl	$0, %edx
	movl	$0, %ebx
	jmp	.L394
.L395:
	movl	16(%rsp), %eax
	movsd	(%r12,%rax,8), %xmm6
	movsd	%xmm6, 32(%rsp)
	pxor	%xmm0, %xmm0
	ucomisd	%xmm0, %xmm6
	jp	.L469
	jne	.L469
.L396:
	leal	1(%r13), %eax
	addl	%ebp, 16(%rsp)
	cmpl	%r13d, %ebx
	je	.L399
	movl	%eax, %r13d
.L392:
	movl	$1, %esi
	movl	24(%rsp), %r9d
	jmp	.L400
.L469:
	movl	%r13d, %eax
	andl	$1, %eax
	negl	%eax
	sbbl	%eax, %eax
	orl	$1, %eax
	movl	%eax, 40(%rsp)
	subq	$8, %rsp
	.cfi_def_cfa_offset 65768
	pushq	$0
	.cfi_def_cfa_offset 65776
	movl	$0, %r9d
	movl	$0, %r8d
	movl	$0, %ecx
	movq	%r15, %rdx
	movl	40(%rsp), %esi
	movq	24(%rsp), %rdi
.LEHB1:
	call	_ZN22basis_set_calculationsIdE11DeterminantEjPdS1_S1_S1_S1_
	pxor	%xmm1, %xmm1
	cvtsi2sdl	56(%rsp), %xmm1
	mulsd	48(%rsp), %xmm0
	mulsd	%xmm1, %xmm0
	addsd	16(%rsp), %xmm0
	movsd	%xmm0, 16(%rsp)
	addq	$16, %rsp
	.cfi_def_cfa_offset 65760
	jmp	.L396
.L399:
	movq	%r15, %rdi
	call	_ZdaPv@PLT
	jmp	.L382
.L460:
	movl	%edi, %r11d
.L403:
	movl	%r11d, %edi
	subl	%r10d, %edi
	imull	%esi, %edi
	movl	%ecx, %r8d
	movl	%r10d, %r9d
	movl	%edx, 64(%rsp)
	movl	%ecx, 68(%rsp)
	movl	%eax, %r14d
	jmp	.L417
.L472:
	leal	0(%rbp,%r8), %ecx
	movl	%r8d, %edx
	movl	%r11d, (%rsp)
	movl	%r9d, 8(%rsp)
	movl	%edi, 16(%rsp)
	movl	%r8d, 24(%rsp)
	movl	%r10d, 32(%rsp)
	movl	%r14d, 40(%rsp)
	movl	%r12d, 48(%rsp)
	movl	%esi, 60(%rsp)
.L413:
	movl	%edx, %r13d
	movapd	%xmm0, %xmm2
	mulsd	144(%rsp,%r13,8), %xmm2
	movsd	%xmm2, 144(%rsp,%r13,8)
	leal	1(%rdx), %r12d
	movapd	%xmm0, %xmm2
	mulsd	144(%rsp,%r12,8), %xmm2
	movsd	%xmm2, 144(%rsp,%r12,8)
	leal	2(%rdx), %r11d
	movapd	%xmm0, %xmm2
	mulsd	144(%rsp,%r11,8), %xmm2
	movsd	%xmm2, 144(%rsp,%r11,8)
	leal	3(%rdx), %r10d
	movapd	%xmm0, %xmm2
	mulsd	144(%rsp,%r10,8), %xmm2
	movsd	%xmm2, 144(%rsp,%r10,8)
	leal	4(%rdx), %r9d
	movapd	%xmm0, %xmm2
	mulsd	144(%rsp,%r9,8), %xmm2
	movsd	%xmm2, 144(%rsp,%r9,8)
	leal	5(%rdx), %r8d
	movapd	%xmm0, %xmm2
	mulsd	144(%rsp,%r8,8), %xmm2
	movsd	%xmm2, 144(%rsp,%r8,8)
	leal	6(%rdx), %edi
	movapd	%xmm0, %xmm2
	mulsd	144(%rsp,%rdi,8), %xmm2
	movsd	%xmm2, 144(%rsp,%rdi,8)
	leal	7(%rdx), %esi
	movapd	%xmm0, %xmm2
	mulsd	144(%rsp,%rsi,8), %xmm2
	movsd	%xmm2, 144(%rsp,%rsi,8)
	movl	%eax, %r14d
	movapd	%xmm1, %xmm4
	mulsd	144(%rsp,%r14,8), %xmm4
	movsd	144(%rsp,%r13,8), %xmm2
	subsd	%xmm4, %xmm2
	movsd	%xmm2, 144(%rsp,%r13,8)
	leal	1(%rax), %r14d
	movapd	%xmm1, %xmm4
	mulsd	144(%rsp,%r14,8), %xmm4
	movsd	144(%rsp,%r12,8), %xmm2
	subsd	%xmm4, %xmm2
	movsd	%xmm2, 144(%rsp,%r12,8)
	leal	2(%rax), %r14d
	movapd	%xmm1, %xmm4
	mulsd	144(%rsp,%r14,8), %xmm4
	movsd	144(%rsp,%r11,8), %xmm2
	subsd	%xmm4, %xmm2
	movsd	%xmm2, 144(%rsp,%r11,8)
	leal	3(%rax), %r14d
	movapd	%xmm1, %xmm4
	mulsd	144(%rsp,%r14,8), %xmm4
	movsd	144(%rsp,%r10,8), %xmm2
	subsd	%xmm4, %xmm2
	movsd	%xmm2, 144(%rsp,%r10,8)
	leal	4(%rax), %r14d
	movapd	%xmm1, %xmm4
	mulsd	144(%rsp,%r14,8), %xmm4
	movsd	144(%rsp,%r9,8), %xmm2
	subsd	%xmm4, %xmm2
	movsd	%xmm2, 144(%rsp,%r9,8)
	leal	5(%rax), %r14d
	movapd	%xmm1, %xmm4
	mulsd	144(%rsp,%r14,8), %xmm4
	movsd	144(%rsp,%r8,8), %xmm2
	subsd	%xmm4, %xmm2
	movsd	%xmm2, 144(%rsp,%r8,8)
	leal	6(%rax), %r14d
	movapd	%xmm1, %xmm4
	mulsd	144(%rsp,%r14,8), %xmm4
	movsd	144(%rsp,%rdi,8), %xmm2
	subsd	%xmm4, %xmm2
	movsd	%xmm2, 144(%rsp,%rdi,8)
	leal	7(%rax), %r14d
	movapd	%xmm1, %xmm4
	mulsd	144(%rsp,%r14,8), %xmm4
	movsd	144(%rsp,%rsi,8), %xmm2
	subsd	%xmm4, %xmm2
	movsd	%xmm2, 144(%rsp,%rsi,8)
	movapd	%xmm0, %xmm2
	mulsd	32912(%rsp,%r13,8), %xmm2
	movsd	%xmm2, 32912(%rsp,%r13,8)
	movapd	%xmm0, %xmm2
	mulsd	32912(%rsp,%r12,8), %xmm2
	movsd	%xmm2, 32912(%rsp,%r12,8)
	movapd	%xmm0, %xmm2
	mulsd	32912(%rsp,%r11,8), %xmm2
	movsd	%xmm2, 32912(%rsp,%r11,8)
	movapd	%xmm0, %xmm2
	mulsd	32912(%rsp,%r10,8), %xmm2
	movsd	%xmm2, 32912(%rsp,%r10,8)
	movapd	%xmm0, %xmm2
	mulsd	32912(%rsp,%r9,8), %xmm2
	movsd	%xmm2, 32912(%rsp,%r9,8)
	movapd	%xmm0, %xmm2
	mulsd	32912(%rsp,%r8,8), %xmm2
	movsd	%xmm2, 32912(%rsp,%r8,8)
	movapd	%xmm0, %xmm2
	mulsd	32912(%rsp,%rdi,8), %xmm2
	movsd	%xmm2, 32912(%rsp,%rdi,8)
	movapd	%xmm0, %xmm2
	mulsd	32912(%rsp,%rsi,8), %xmm2
	movsd	%xmm2, 32912(%rsp,%rsi,8)
	addl	$8, %edx
	addl	$8, %eax
	cmpl	%edx, %ecx
	jne	.L413
	movl	(%rsp), %r11d
	movl	8(%rsp), %r9d
	movl	16(%rsp), %edi
	movl	24(%rsp), %r8d
	movl	32(%rsp), %r10d
	movl	40(%rsp), %r14d
	movl	48(%rsp), %r12d
	movl	60(%rsp), %esi
	cmpl	%esi, %ebx
	jnb	.L407
	leal	(%rbx,%r8), %edx
	leal	(%rsi,%r8), %r13d
.L416:
	movl	%edx, %eax
	movapd	%xmm0, %xmm2
	mulsd	144(%rsp,%rax,8), %xmm2
	movsd	%xmm2, 144(%rsp,%rax,8)
	leal	(%rdi,%rdx), %ecx
	movapd	%xmm1, %xmm4
	mulsd	144(%rsp,%rcx,8), %xmm4
	subsd	%xmm4, %xmm2
	movsd	%xmm2, 144(%rsp,%rax,8)
	movapd	%xmm0, %xmm2
	mulsd	32912(%rsp,%rax,8), %xmm2
	movsd	%xmm2, 32912(%rsp,%rax,8)
	addl	$1, %edx
	cmpl	%edx, %r13d
	jne	.L416
.L407:
	addl	$1, %r9d
	addl	%esi, %r8d
	subl	%esi, %edi
	cmpl	%r9d, %esi
	je	.L513
.L417:
	cmpl	%r9d, %r11d
	je	.L407
	leal	(%r8,%r10), %eax
	movsd	144(%rsp,%rax,8), %xmm1
	ucomisd	%xmm3, %xmm1
	jp	.L471
	je	.L407
.L471:
	movl	%r11d, %eax
	imull	%esi, %eax
	leal	(%rax,%r10), %edx
	movsd	144(%rsp,%rdx,8), %xmm0
	ucomisd	%xmm3, %xmm0
	jp	.L409
	movq	%xmm0, %rdx
	cmove	%r15, %rdx
	movq	%rdx, %xmm0
.L409:
	movapd	%xmm1, %xmm2
	divsd	%xmm0, %xmm2
	movapd	%xmm2, %xmm5
	mulsd	%xmm0, %xmm5
	movapd	%xmm1, %xmm4
	subsd	%xmm5, %xmm4
	ucomisd	%xmm3, %xmm4
	jp	.L472
	jne	.L472
	leal	0(%rbp,%r8), %r13d
	movl	%r8d, %edx
	movl	%r11d, (%rsp)
.L414:
	movl	%edx, %ecx
	movl	%eax, %r11d
	movapd	%xmm2, %xmm1
	mulsd	144(%rsp,%r11,8), %xmm1
	movsd	144(%rsp,%rcx,8), %xmm0
	subsd	%xmm1, %xmm0
	movsd	%xmm0, 144(%rsp,%rcx,8)
	leal	1(%rdx), %ecx
	leal	1(%rax), %r11d
	movapd	%xmm2, %xmm1
	mulsd	144(%rsp,%r11,8), %xmm1
	movsd	144(%rsp,%rcx,8), %xmm0
	subsd	%xmm1, %xmm0
	movsd	%xmm0, 144(%rsp,%rcx,8)
	leal	2(%rdx), %ecx
	leal	2(%rax), %r11d
	movapd	%xmm2, %xmm1
	mulsd	144(%rsp,%r11,8), %xmm1
	movsd	144(%rsp,%rcx,8), %xmm0
	subsd	%xmm1, %xmm0
	movsd	%xmm0, 144(%rsp,%rcx,8)
	leal	3(%rdx), %ecx
	leal	3(%rax), %r11d
	movapd	%xmm2, %xmm1
	mulsd	144(%rsp,%r11,8), %xmm1
	movsd	144(%rsp,%rcx,8), %xmm0
	subsd	%xmm1, %xmm0
	movsd	%xmm0, 144(%rsp,%rcx,8)
	leal	4(%rdx), %ecx
	leal	4(%rax), %r11d
	movapd	%xmm2, %xmm1
	mulsd	144(%rsp,%r11,8), %xmm1
	movsd	144(%rsp,%rcx,8), %xmm0
	subsd	%xmm1, %xmm0
	movsd	%xmm0, 144(%rsp,%rcx,8)
	leal	5(%rdx), %ecx
	leal	5(%rax), %r11d
	movapd	%xmm2, %xmm1
	mulsd	144(%rsp,%r11,8), %xmm1
	movsd	144(%rsp,%rcx,8), %xmm0
	subsd	%xmm1, %xmm0
	movsd	%xmm0, 144(%rsp,%rcx,8)
	leal	6(%rdx), %ecx
	leal	6(%rax), %r11d
	movapd	%xmm2, %xmm1
	mulsd	144(%rsp,%r11,8), %xmm1
	movsd	144(%rsp,%rcx,8), %xmm0
	subsd	%xmm1, %xmm0
	movsd	%xmm0, 144(%rsp,%rcx,8)
	leal	7(%rdx), %ecx
	leal	7(%rax), %r11d
	movapd	%xmm2, %xmm1
	mulsd	144(%rsp,%r11,8), %xmm1
	movsd	144(%rsp,%rcx,8), %xmm0
	subsd	%xmm1, %xmm0
	movsd	%xmm0, 144(%rsp,%rcx,8)
	addl	$8, %edx
	addl	$8, %eax
	cmpl	%edx, %r13d
	jne	.L414
	movl	(%rsp), %r11d
	cmpl	%esi, %ebx
	jnb	.L407
	leal	(%rbx,%r8), %eax
	leal	(%rsi,%r8), %r13d
.L415:
	movl	%eax, %edx
	leal	(%rax,%rdi), %ecx
	movapd	%xmm2, %xmm1
	mulsd	144(%rsp,%rcx,8), %xmm1
	movsd	144(%rsp,%rdx,8), %xmm0
	subsd	%xmm1, %xmm0
	movsd	%xmm0, 144(%rsp,%rdx,8)
	addl	$1, %eax
	cmpl	%r13d, %eax
	jne	.L415
	jmp	.L407
.L513:
	movl	64(%rsp), %edx
	movl	68(%rsp), %ecx
	movl	%r14d, %eax
.L422:
	cmpl	%r11d, %r10d
	jb	.L514
.L418:
	leal	1(%r10), %edi
	addl	%esi, %ecx
	addl	%r12d, %eax
	cmpl	%edi, %esi
	je	.L420
	movl	%edi, %r10d
.L402:
	movl	%eax, %r8d
	movl	%r10d, %edi
	cmpl	%esi, %r10d
	jnb	.L422
.L406:
	movl	%r8d, %r9d
	movsd	144(%rsp,%r9,8), %xmm0
	ucomisd	%xmm3, %xmm0
	jp	.L460
	jne	.L460
	cmpl	%edx, %edi
	je	.L502
	addl	$1, %edi
	addl	%esi, %r8d
	cmpl	%edi, %esi
	jne	.L406
	jmp	.L403
.L514:
	negl	72(%rsp)
	movl	%r11d, %r8d
	imull	%esi, %r8d
	leal	(%r8,%rsi), %r14d
	movl	%r8d, %edi
	movl	%ecx, %r13d
	subl	%r8d, %r13d
.L419:
	movl	%edi, %r9d
	movsd	144(%rsp,%r9,8), %xmm1
	movsd	32912(%rsp,%r9,8), %xmm0
	leal	0(%r13,%rdi), %r8d
	movsd	144(%rsp,%r8,8), %xmm2
	movsd	%xmm2, 144(%rsp,%r9,8)
	movsd	32912(%rsp,%r8,8), %xmm2
	movsd	%xmm2, 32912(%rsp,%r9,8)
	movsd	%xmm1, 144(%rsp,%r8,8)
	movsd	%xmm0, 32912(%rsp,%r8,8)
	addl	$1, %edi
	cmpl	%edi, %r14d
	jne	.L419
	jmp	.L418
.L420:
	movl	72(%rsp), %r12d
	movl	%r10d, %r9d
	leal	2(%r10), %esi
	movl	$0, %eax
	movsd	.LC5(%rip), %xmm0
	movapd	%xmm0, %xmm1
	movl	$0, %ecx
	pxor	%xmm4, %xmm4
	jmp	.L425
.L473:
	movapd	%xmm2, %xmm1
.L423:
	leal	1(%rcx), %edx
	addl	%esi, %eax
	cmpl	%ecx, %r9d
	je	.L515
	movl	%edx, %ecx
.L425:
	movl	%eax, %edx
	mulsd	144(%rsp,%rdx,8), %xmm1
	movapd	%xmm1, %xmm2
	mulsd	32912(%rsp,%rdx,8), %xmm0
	divsd	%xmm0, %xmm1
	movapd	%xmm1, %xmm5
	mulsd	%xmm0, %xmm5
	movapd	%xmm2, %xmm3
	subsd	%xmm5, %xmm3
	ucomisd	%xmm4, %xmm3
	jp	.L473
	jne	.L473
	movsd	.LC5(%rip), %xmm0
	jmp	.L423
.L515:
	divsd	%xmm0, %xmm1
	pxor	%xmm0, %xmm0
	cvtsi2sdl	%r12d, %xmm0
	mulsd	%xmm1, %xmm0
	movsd	%xmm0, (%rsp)
	jmp	.L382
.L511:
	movl	60(%rsp), %ebx
	movl	%ebx, %ecx
	imull	%ebx, %ecx
	testl	%ecx, %ecx
	je	.L426
	movl	%ecx, %ecx
	leaq	0(,%rcx,8), %rsi
	movl	$0, %ecx
	movsd	.LC5(%rip), %xmm1
.L427:
	movsd	(%r12,%rcx), %xmm0
	movsd	%xmm0, 0(%r13,%rcx)
	movsd	%xmm1, 0(%rbp,%rcx)
	addq	$8, %rcx
	cmpq	%rsi, %rcx
	jne	.L427
.L426:
	movl	60(%rsp), %edi
	leal	1(%rdi), %r10d
	movl	$0, %r14d
	movl	$0, %r9d
	movl	$1, 124(%rsp)
	movl	$0, %ebx
	leal	-1(%rdi), %r8d
	pxor	%xmm3, %xmm3
	leal	-7(%rdi), %esi
	movl	%esi, 64(%rsp)
	movl	%edi, %r15d
	andl	$-8, %r15d
	fld1
	movl	%r11d, %esi
	movl	%r10d, 120(%rsp)
	movl	%r14d, %ecx
	movl	%ebx, 68(%rsp)
	movl	%edi, %r10d
	movq	%rbp, %rdi
	movq	%rdx, 128(%rsp)
	movq	%rax, 136(%rsp)
	movl	%r8d, %eax
	movl	%r15d, %r8d
	movq	%r13, %r15
	movl	%r9d, %r13d
	jmp	.L428
.L464:
	movl	%edx, %esi
.L429:
	leal	1(%r13), %r14d
	movl	%esi, %edx
	movl	68(%rsp), %r9d
	subl	%r9d, %edx
	imull	%r10d, %edx
	movl	%edx, %r11d
	leal	0(%r13,%r10), %ebx
	movl	%r9d, %ebp
	leal	-1(%r9), %r12d
	movl	%ecx, 112(%rsp)
	movl	%r14d, (%rsp)
	movl	%eax, 116(%rsp)
	movl	%r8d, %edx
	movq	%rdi, %r8
	jmp	.L442
.L476:
	movl	(%rsp), %r14d
	movl	%ecx, 72(%rsp)
	movl	%r13d, 76(%rsp)
	movl	%r11d, 80(%rsp)
	movl	%esi, 84(%rsp)
	movl	%ebx, 88(%rsp)
	movl	%r9d, 92(%rsp)
	movl	%ebp, 96(%rsp)
	movl	%r10d, 100(%rsp)
	movl	%r12d, 104(%rsp)
	movl	%edx, 108(%rsp)
.L438:
	leal	-1(%r14), %eax
	salq	$3, %rax
	movq	%rax, 8(%rsp)
	leaq	(%r15,%rax), %r12
	movapd	%xmm0, %xmm2
	mulsd	(%r12), %xmm2
	movsd	%xmm2, (%r12)
	movl	%r14d, %eax
	leaq	0(,%rax,8), %rsi
	movq	%rsi, 16(%rsp)
	leaq	(%r15,%rsi), %rbp
	movapd	%xmm0, %xmm2
	mulsd	0(%rbp), %xmm2
	movsd	%xmm2, 0(%rbp)
	leal	1(%r14), %eax
	leaq	0(,%rax,8), %rdx
	movq	%rdx, 24(%rsp)
	leaq	(%r15,%rdx), %rbx
	movapd	%xmm0, %xmm2
	mulsd	(%rbx), %xmm2
	movsd	%xmm2, (%rbx)
	leal	2(%r14), %eax
	leaq	0(,%rax,8), %rcx
	movq	%rcx, 32(%rsp)
	leaq	(%r15,%rcx), %r11
	movapd	%xmm0, %xmm2
	mulsd	(%r11), %xmm2
	movsd	%xmm2, (%r11)
	leal	3(%r14), %edx
	salq	$3, %rdx
	leaq	(%r15,%rdx), %r10
	movapd	%xmm0, %xmm2
	mulsd	(%r10), %xmm2
	movsd	%xmm2, (%r10)
	leal	4(%r14), %eax
	leaq	0(,%rax,8), %r9
	movq	%r9, 40(%rsp)
	addq	%r15, %r9
	movapd	%xmm0, %xmm2
	mulsd	(%r9), %xmm2
	movsd	%xmm2, (%r9)
	leal	5(%r14), %eax
	salq	$3, %rax
	movq	%rax, 48(%rsp)
	leaq	(%r15,%rax), %rsi
	movapd	%xmm0, %xmm2
	mulsd	(%rsi), %xmm2
	movsd	%xmm2, (%rsi)
	leal	6(%r14), %eax
	salq	$3, %rax
	leaq	(%r15,%rax), %rcx
	movapd	%xmm0, %xmm2
	mulsd	(%rcx), %xmm2
	movsd	%xmm2, (%rcx)
	movl	%edi, %r13d
	movapd	%xmm1, %xmm4
	mulsd	(%r15,%r13,8), %xmm4
	movsd	(%r12), %xmm2
	subsd	%xmm4, %xmm2
	movsd	%xmm2, (%r12)
	leal	1(%rdi), %r12d
	movapd	%xmm1, %xmm4
	mulsd	(%r15,%r12,8), %xmm4
	movsd	0(%rbp), %xmm2
	subsd	%xmm4, %xmm2
	movsd	%xmm2, 0(%rbp)
	leal	2(%rdi), %ebp
	movapd	%xmm1, %xmm4
	mulsd	(%r15,%rbp,8), %xmm4
	movsd	(%rbx), %xmm2
	subsd	%xmm4, %xmm2
	movsd	%xmm2, (%rbx)
	leal	3(%rdi), %ebx
	movapd	%xmm1, %xmm4
	mulsd	(%r15,%rbx,8), %xmm4
	movsd	(%r11), %xmm2
	subsd	%xmm4, %xmm2
	movsd	%xmm2, (%r11)
	leal	4(%rdi), %r11d
	movapd	%xmm1, %xmm4
	mulsd	(%r15,%r11,8), %xmm4
	movsd	(%r10), %xmm2
	subsd	%xmm4, %xmm2
	movsd	%xmm2, (%r10)
	leal	5(%rdi), %r10d
	movapd	%xmm1, %xmm4
	mulsd	(%r15,%r10,8), %xmm4
	movsd	(%r9), %xmm2
	subsd	%xmm4, %xmm2
	movsd	%xmm2, (%r9)
	leal	6(%rdi), %r9d
	movapd	%xmm1, %xmm4
	mulsd	(%r15,%r9,8), %xmm4
	movsd	(%rsi), %xmm2
	subsd	%xmm4, %xmm2
	movsd	%xmm2, (%rsi)
	leal	7(%rdi), %esi
	movapd	%xmm1, %xmm4
	mulsd	(%r15,%rsi,8), %xmm4
	movsd	(%rcx), %xmm2
	subsd	%xmm4, %xmm2
	movsd	%xmm2, (%rcx)
	movq	8(%rsp), %rbx
	leaq	(%r8,%rbx), %rcx
	movapd	%xmm0, %xmm2
	mulsd	(%rcx), %xmm2
	movsd	%xmm2, (%rcx)
	movq	16(%rsp), %rsi
	leaq	(%r8,%rsi), %rcx
	movapd	%xmm0, %xmm2
	mulsd	(%rcx), %xmm2
	movsd	%xmm2, (%rcx)
	movq	24(%rsp), %rbx
	leaq	(%r8,%rbx), %rcx
	movapd	%xmm0, %xmm2
	mulsd	(%rcx), %xmm2
	movsd	%xmm2, (%rcx)
	movq	32(%rsp), %rcx
	addq	%r8, %rcx
	movapd	%xmm0, %xmm2
	mulsd	(%rcx), %xmm2
	movsd	%xmm2, (%rcx)
	addq	%r8, %rdx
	movapd	%xmm0, %xmm2
	mulsd	(%rdx), %xmm2
	movsd	%xmm2, (%rdx)
	movq	40(%rsp), %r9
	leaq	(%r8,%r9), %rdx
	movapd	%xmm0, %xmm2
	mulsd	(%rdx), %xmm2
	movsd	%xmm2, (%rdx)
	movq	48(%rsp), %rdx
	addq	%r8, %rdx
	movapd	%xmm0, %xmm2
	mulsd	(%rdx), %xmm2
	movsd	%xmm2, (%rdx)
	addq	%r8, %rax
	movapd	%xmm0, %xmm2
	mulsd	(%rax), %xmm2
	movsd	%xmm2, (%rax)
	addl	$8, %r14d
	addl	$8, %edi
	movl	%r14d, %eax
	movl	(%rsp), %ebx
	subl	%ebx, %eax
	movl	64(%rsp), %ebx
	cmpl	%ebx, %eax
	jb	.L438
	movl	72(%rsp), %ecx
	movl	76(%rsp), %r13d
	movl	80(%rsp), %r11d
	movl	84(%rsp), %esi
	movl	88(%rsp), %ebx
	movl	92(%rsp), %r9d
	movl	96(%rsp), %ebp
	movl	100(%rsp), %r10d
	movl	104(%rsp), %r12d
	movl	108(%rsp), %edx
	cmpl	%r10d, %edx
	jnb	.L432
	addl	%edx, %ecx
.L441:
	movl	%ecx, %eax
	salq	$3, %rax
	leaq	(%r15,%rax), %rdi
	movapd	%xmm0, %xmm2
	mulsd	(%rdi), %xmm2
	movsd	%xmm2, (%rdi)
	leal	(%r11,%rcx), %r14d
	movapd	%xmm1, %xmm4
	mulsd	(%r15,%r14,8), %xmm4
	subsd	%xmm4, %xmm2
	movsd	%xmm2, (%rdi)
	addq	%r8, %rax
	movapd	%xmm0, %xmm2
	mulsd	(%rax), %xmm2
	movsd	%xmm2, (%rax)
	addl	$1, %ecx
	cmpl	%ecx, %ebx
	jne	.L441
.L432:
	addl	$1, %ebp
	addl	%r10d, (%rsp)
	subl	%r10d, %r11d
	addl	%r10d, %ebx
	cmpl	%ebp, %r10d
	je	.L516
.L442:
	cmpl	%ebp, %esi
	je	.L432
	movl	(%rsp), %eax
	leal	(%r12,%rax), %eax
	movsd	(%r15,%rax,8), %xmm1
	ucomisd	%xmm3, %xmm1
	jp	.L475
	je	.L432
.L475:
	movl	%esi, %edi
	imull	%r10d, %edi
	leal	(%rdi,%r9), %eax
	movsd	(%r15,%rax,8), %xmm0
	ucomisd	%xmm3, %xmm0
	jp	.L434
	movq	%xmm0, %rax
	fstl	8(%rsp)
	cmove	8(%rsp), %rax
	movq	%rax, %xmm0
.L434:
	movl	(%rsp), %eax
	leal	-1(%rax), %ecx
	movapd	%xmm1, %xmm2
	divsd	%xmm0, %xmm2
	movapd	%xmm2, %xmm5
	mulsd	%xmm0, %xmm5
	movapd	%xmm1, %xmm4
	subsd	%xmm5, %xmm4
	ucomisd	%xmm3, %xmm4
	jp	.L476
	jne	.L476
	movl	%ecx, 8(%rsp)
	movl	%r13d, 16(%rsp)
	movl	%r11d, 24(%rsp)
	movl	(%rsp), %r11d
	movl	64(%rsp), %r13d
.L439:
	leal	-1(%rax), %ecx
	leaq	(%r15,%rcx,8), %rcx
	movl	%edi, %r14d
	movapd	%xmm2, %xmm1
	mulsd	(%r15,%r14,8), %xmm1
	movsd	(%rcx), %xmm0
	subsd	%xmm1, %xmm0
	movsd	%xmm0, (%rcx)
	movl	%eax, %ecx
	leaq	(%r15,%rcx,8), %rcx
	leal	1(%rdi), %r14d
	movapd	%xmm2, %xmm1
	mulsd	(%r15,%r14,8), %xmm1
	movsd	(%rcx), %xmm0
	subsd	%xmm1, %xmm0
	movsd	%xmm0, (%rcx)
	leal	1(%rax), %ecx
	leaq	(%r15,%rcx,8), %rcx
	leal	2(%rdi), %r14d
	movapd	%xmm2, %xmm1
	mulsd	(%r15,%r14,8), %xmm1
	movsd	(%rcx), %xmm0
	subsd	%xmm1, %xmm0
	movsd	%xmm0, (%rcx)
	leal	2(%rax), %ecx
	leaq	(%r15,%rcx,8), %rcx
	leal	3(%rdi), %r14d
	movapd	%xmm2, %xmm1
	mulsd	(%r15,%r14,8), %xmm1
	movsd	(%rcx), %xmm0
	subsd	%xmm1, %xmm0
	movsd	%xmm0, (%rcx)
	leal	3(%rax), %ecx
	leaq	(%r15,%rcx,8), %rcx
	leal	4(%rdi), %r14d
	movapd	%xmm2, %xmm1
	mulsd	(%r15,%r14,8), %xmm1
	movsd	(%rcx), %xmm0
	subsd	%xmm1, %xmm0
	movsd	%xmm0, (%rcx)
	leal	4(%rax), %ecx
	leaq	(%r15,%rcx,8), %rcx
	leal	5(%rdi), %r14d
	movapd	%xmm2, %xmm1
	mulsd	(%r15,%r14,8), %xmm1
	movsd	(%rcx), %xmm0
	subsd	%xmm1, %xmm0
	movsd	%xmm0, (%rcx)
	leal	5(%rax), %ecx
	leaq	(%r15,%rcx,8), %rcx
	leal	6(%rdi), %r14d
	movapd	%xmm2, %xmm1
	mulsd	(%r15,%r14,8), %xmm1
	movsd	(%rcx), %xmm0
	subsd	%xmm1, %xmm0
	movsd	%xmm0, (%rcx)
	leal	6(%rax), %ecx
	leaq	(%r15,%rcx,8), %rcx
	leal	7(%rdi), %r14d
	movapd	%xmm2, %xmm1
	mulsd	(%r15,%r14,8), %xmm1
	movsd	(%rcx), %xmm0
	subsd	%xmm1, %xmm0
	movsd	%xmm0, (%rcx)
	addl	$8, %edi
	addl	$8, %eax
	movl	%eax, %ecx
	subl	%r11d, %ecx
	cmpl	%r13d, %ecx
	jb	.L439
	movl	8(%rsp), %ecx
	movl	16(%rsp), %r13d
	movl	24(%rsp), %r11d
	cmpl	%r10d, %edx
	jnb	.L432
	leal	(%rcx,%rdx), %eax
.L440:
	movl	%eax, %ecx
	leaq	(%r15,%rcx,8), %rcx
	leal	(%rax,%r11), %edi
	movapd	%xmm2, %xmm1
	mulsd	(%r15,%rdi,8), %xmm1
	movsd	(%rcx), %xmm0
	subsd	%xmm1, %xmm0
	movsd	%xmm0, (%rcx)
	addl	$1, %eax
	cmpl	%eax, %ebx
	jne	.L440
	jmp	.L432
.L516:
	movl	112(%rsp), %ecx
	movl	116(%rsp), %eax
	movq	%r8, %rdi
	movl	%edx, %r8d
.L447:
	cmpl	%esi, 68(%rsp)
	jb	.L517
.L443:
	addl	$1, 68(%rsp)
	movl	68(%rsp), %ebx
	addl	%r10d, %r13d
	movl	120(%rsp), %edx
	addl	%edx, %ecx
	cmpl	%r10d, %ebx
	jnb	.L466
.L428:
	movl	%ecx, %r9d
	movl	68(%rsp), %ebx
	movl	%ebx, %edx
	cmpl	%r10d, %ebx
	jnb	.L447
.L431:
	movl	%r9d, %r11d
	movsd	(%r15,%r11,8), %xmm0
	ucomisd	%xmm3, %xmm0
	jp	.L464
	jne	.L464
	cmpl	%edx, %eax
	je	.L504
	addl	$1, %edx
	addl	%r10d, %r9d
	cmpl	%edx, %r10d
	jne	.L431
	jmp	.L429
.L517:
	negl	124(%rsp)
	movl	%esi, %r12d
	imull	%r10d, %r12d
	movl	$0, %edx
	movl	%esi, (%rsp)
	movq	128(%rsp), %rbp
	movq	136(%rsp), %r14
.L444:
	leal	(%r12,%rdx), %r9d
	salq	$3, %r9
	leaq	(%r15,%r9), %rbx
	movsd	(%rbx), %xmm0
	movsd	%xmm0, 0(%rbp,%rdx,8)
	addq	%rdi, %r9
	movsd	(%r9), %xmm0
	movsd	%xmm0, (%r14,%rdx,8)
	leal	0(%r13,%rdx), %esi
	salq	$3, %rsi
	leaq	(%r15,%rsi), %r11
	movsd	(%r11), %xmm0
	movsd	%xmm0, (%rbx)
	addq	%rdi, %rsi
	movsd	(%rsi), %xmm0
	movsd	%xmm0, (%r9)
	movsd	0(%rbp,%rdx,8), %xmm0
	movsd	%xmm0, (%r11)
	movsd	(%r14,%rdx,8), %xmm0
	movsd	%xmm0, (%rsi)
	addq	$1, %rdx
	cmpl	%r10d, %edx
	jb	.L444
	movl	(%rsp), %esi
	jmp	.L443
.L466:
	fstp	%st(0)
	movl	120(%rsp), %r10d
	movq	%r15, %r13
	movq	%rdi, %rbp
	movl	$0, %edx
	movsd	.LC5(%rip), %xmm0
	movapd	%xmm0, %xmm1
	movl	$0, %eax
	pxor	%xmm4, %xmm4
	movl	60(%rsp), %esi
	jmp	.L445
.L477:
	movapd	%xmm2, %xmm1
.L448:
	addl	$1, %eax
	addl	%r10d, %edx
	cmpl	%esi, %eax
	jnb	.L518
.L445:
	movl	%edx, %ecx
	mulsd	0(%r13,%rcx,8), %xmm1
	movapd	%xmm1, %xmm2
	mulsd	0(%rbp,%rcx,8), %xmm0
	divsd	%xmm0, %xmm1
	movapd	%xmm1, %xmm5
	mulsd	%xmm0, %xmm5
	movapd	%xmm2, %xmm3
	subsd	%xmm5, %xmm3
	ucomisd	%xmm4, %xmm3
	jp	.L477
	jne	.L477
	movsd	.LC5(%rip), %xmm0
	jmp	.L448
.L518:
	divsd	%xmm0, %xmm1
	pxor	%xmm0, %xmm0
	cvtsi2sdl	124(%rsp), %xmm0
	mulsd	%xmm1, %xmm0
	movsd	%xmm0, (%rsp)
	jmp	.L382
.L468:
	endbr64
	movq	%rax, %rdi
	cmpq	$1, %rdx
	je	.L451
	movq	65688(%rsp), %rax
	subq	%fs:40, %rax
	je	.L452
	call	__stack_chk_fail@PLT
.L452:
	call	_Unwind_Resume@PLT
.LEHE1:
.L451:
	call	__cxa_begin_catch@PLT
	movq	8(%rsp), %rax
	movl	$1, 184(%rax)
	call	__cxa_end_catch@PLT
	jmp	.L453
.L502:
	movsd	%xmm0, (%rsp)
	jmp	.L382
.L504:
	fstp	%st(0)
	movsd	%xmm0, (%rsp)
	jmp	.L382
.L508:
	call	__stack_chk_fail@PLT
	.cfi_endproc
.LFE11034:
	.globl	__gxx_personality_v0
	.section	.gcc_except_table._ZN22basis_set_calculationsIdE11DeterminantEjPdS1_S1_S1_S1_,"aG",@progbits,_ZN22basis_set_calculationsIdE11DeterminantEjPdS1_S1_S1_S1_,comdat
	.align 4
.LLSDA11034:
	.byte	0xff
	.byte	0x9b
	.uleb128 .LLSDATT11034-.LLSDATTD11034
.LLSDATTD11034:
	.byte	0x1
	.uleb128 .LLSDACSE11034-.LLSDACSB11034
.LLSDACSB11034:
	.uleb128 .LEHB0-.LFB11034
	.uleb128 .LEHE0-.LEHB0
	.uleb128 .L468-.LFB11034
	.uleb128 0x1
	.uleb128 .LEHB1-.LFB11034
	.uleb128 .LEHE1-.LEHB1
	.uleb128 0
	.uleb128 0
.LLSDACSE11034:
	.byte	0x1
	.byte	0
	.align 4
	.long	DW.ref._ZTIi-.
.LLSDATT11034:
	.section	.text._ZN22basis_set_calculationsIdE11DeterminantEjPdS1_S1_S1_S1_,"axG",@progbits,_ZN22basis_set_calculationsIdE11DeterminantEjPdS1_S1_S1_S1_,comdat
	.size	_ZN22basis_set_calculationsIdE11DeterminantEjPdS1_S1_S1_S1_, .-_ZN22basis_set_calculationsIdE11DeterminantEjPdS1_S1_S1_S1_
	.section	.text._ZN22basis_set_calculationsIdE25basis_set_Determinant_setEjPdjddS1_,"axG",@progbits,_ZN22basis_set_calculationsIdE25basis_set_Determinant_setEjPdjddS1_,comdat
	.align 2
	.weak	_ZN22basis_set_calculationsIdE25basis_set_Determinant_setEjPdjddS1_
	.type	_ZN22basis_set_calculationsIdE25basis_set_Determinant_setEjPdjddS1_, @function
_ZN22basis_set_calculationsIdE25basis_set_Determinant_setEjPdjddS1_:
.LFB11035:
	.cfi_startproc
	.cfi_personality 0x9b,DW.ref.__gxx_personality_v0
	.cfi_lsda 0x1b,.LLSDA11035
	endbr64
	pushq	%r15
	.cfi_def_cfa_offset 16
	.cfi_offset 15, -16
	pushq	%r14
	.cfi_def_cfa_offset 24
	.cfi_offset 14, -24
	pushq	%r13
	.cfi_def_cfa_offset 32
	.cfi_offset 13, -32
	pushq	%r12
	.cfi_def_cfa_offset 40
	.cfi_offset 12, -40
	pushq	%rbp
	.cfi_def_cfa_offset 48
	.cfi_offset 6, -48
	pushq	%rbx
	.cfi_def_cfa_offset 56
	.cfi_offset 3, -56
	subq	$88, %rsp
	.cfi_def_cfa_offset 144
	movq	%rdi, 48(%rsp)
	movl	%esi, %r14d
	movq	%rdx, %r13
	movl	%ecx, 68(%rsp)
	movsd	%xmm0, (%rsp)
	movsd	%xmm1, 56(%rsp)
	movq	%r8, 72(%rsp)
	movl	%esi, %r12d
	salq	$3, %r12
	movq	%r12, %rdi
.LEHB2:
	call	_Znam@PLT
.LEHE2:
	movq	%rax, 8(%rsp)
	movl	%r14d, %r15d
	imull	%r14d, %r15d
	movl	%r15d, %ebp
	salq	$3, %rbp
	movq	%rbp, %rdi
.LEHB3:
	call	_Znam@PLT
.LEHE3:
	movq	%rax, %rbx
	cmpl	$64, %r14d
	ja	.L573
	movq	$0, 40(%rsp)
	movq	$0, 16(%rsp)
	movq	$0, 24(%rsp)
	movq	$0, 32(%rsp)
.L523:
	testl	%r15d, %r15d
	je	.L528
	movl	$0, %eax
.L529:
	movsd	0(%r13,%rax), %xmm0
	movsd	%xmm0, (%rbx,%rax)
	addq	$8, %rax
	cmpq	%rax, %rbp
	jne	.L529
.L528:
	testl	%r14d, %r14d
	je	.L530
	leal	1(%r14), %edi
	movq	8(%rsp), %rsi
	movq	%rsi, %rax
	addq	%r12, %rsi
	movl	$0, %edx
.L531:
	movl	%edx, %ecx
	movsd	(%rbx,%rcx,8), %xmm0
	movsd	%xmm0, (%rax)
	addl	%edi, %edx
	addq	$8, %rax
	cmpq	%rsi, %rax
	jne	.L531
	cmpl	$0, 68(%rsp)
	je	.L532
.L551:
	movq	72(%rsp), %rsi
	movq	%rsi, %r13
	movl	68(%rsp), %eax
	leaq	(%rsi,%rax,8), %r15
	movq	8(%rsp), %rax
	addq	%rax, %r12
	leal	1(%r14), %ebp
	jmp	.L533
.L560:
	endbr64
	movq	%rax, %rdi
	movq	%rdx, %rax
	movq	$0, 16(%rsp)
	movq	$0, 24(%rsp)
	movq	$0, 32(%rsp)
	movl	$0, %ebx
.L522:
	cmpq	$1, %rax
	jne	.L550
	call	__cxa_begin_catch@PLT
	movq	8(%rsp), %rdi
	call	_ZdaPv@PLT
.L547:
	testq	%rbx, %rbx
	je	.L543
	movq	%rbx, %rdi
	call	_ZdaPv@PLT
.L543:
	cmpq	$0, 32(%rsp)
	je	.L544
	movq	32(%rsp), %rdi
	call	_ZdaPv@PLT
.L544:
	cmpq	$0, 24(%rsp)
	je	.L545
	movq	24(%rsp), %rdi
	call	_ZdaPv@PLT
.L545:
	cmpq	$0, 16(%rsp)
	je	.L546
	movq	16(%rsp), %rdi
	call	_ZdaPv@PLT
.L546:
	movq	48(%rsp), %rax
	movl	$1, 184(%rax)
	call	__cxa_end_catch@PLT
	movsd	.LC4(%rip), %xmm0
	jmp	.L519
.L573:
	movq	%rbp, %rdi
.LEHB4:
	call	_Znam@PLT
.LEHE4:
	movq	%rax, 32(%rsp)
	movq	%rbp, %rdi
.LEHB5:
	call	_Znam@PLT
.LEHE5:
	movq	%rax, 24(%rsp)
	movq	%r12, %rdi
.LEHB6:
	call	_Znam@PLT
.LEHE6:
	jmp	.L574
.L561:
	endbr64
	movq	%rax, %rdi
	movq	%rdx, %rax
	movq	$0, 16(%rsp)
	movq	$0, 24(%rsp)
	jmp	.L522
.L574:
	movq	%rax, 16(%rsp)
	movq	%r12, %rdi
.LEHB7:
	call	_Znam@PLT
.LEHE7:
	jmp	.L575
.L559:
	endbr64
	movq	%rax, %rdi
	movq	%rdx, %rax
	movq	$0, 16(%rsp)
	jmp	.L522
.L575:
	movq	%rax, 40(%rsp)
	jmp	.L523
.L534:
	movl	%edx, %ecx
	movsd	(%rsp), %xmm0
	addsd	(%rax), %xmm0
	movsd	%xmm0, (%rbx,%rcx,8)
	addq	$8, %rax
	addl	%ebp, %edx
	cmpq	%r12, %rax
	jne	.L534
.L536:
	subq	$8, %rsp
	.cfi_def_cfa_offset 152
	pushq	48(%rsp)
	.cfi_def_cfa_offset 160
	movq	32(%rsp), %r9
	movq	40(%rsp), %r8
	movq	48(%rsp), %rcx
	movq	%rbx, %rdx
	movl	%r14d, %esi
	movq	64(%rsp), %rdi
.LEHB8:
	call	_ZN22basis_set_calculationsIdE11DeterminantEjPdS1_S1_S1_S1_
	movsd	%xmm0, 0(%r13)
	movsd	16(%rsp), %xmm2
	addsd	72(%rsp), %xmm2
	movsd	%xmm2, 16(%rsp)
	addq	$8, %r13
	addq	$16, %rsp
	.cfi_def_cfa_offset 144
	cmpq	%r15, %r13
	je	.L532
.L533:
	movq	8(%rsp), %rax
	movl	$0, %edx
	testl	%r14d, %r14d
	jne	.L534
	jmp	.L536
.L532:
	movq	8(%rsp), %rdi
	call	_ZdaPv@PLT
	movq	%rbx, %rdi
	call	_ZdaPv@PLT
	pxor	%xmm0, %xmm0
	cmpl	$64, %r14d
	jbe	.L519
	movq	32(%rsp), %rax
	testq	%rax, %rax
	je	.L538
	movq	%rax, %rdi
	call	_ZdaPv@PLT
.L538:
	movq	24(%rsp), %rax
	testq	%rax, %rax
	je	.L539
	movq	%rax, %rdi
	call	_ZdaPv@PLT
.L539:
	movq	16(%rsp), %rax
	testq	%rax, %rax
	je	.L540
	movq	%rax, %rdi
	call	_ZdaPv@PLT
.L540:
	pxor	%xmm0, %xmm0
	movq	40(%rsp), %rdi
	testq	%rdi, %rdi
	je	.L519
	call	_ZdaPv@PLT
	pxor	%xmm0, %xmm0
.L519:
	addq	$88, %rsp
	.cfi_remember_state
	.cfi_def_cfa_offset 56
	popq	%rbx
	.cfi_def_cfa_offset 48
	popq	%rbp
	.cfi_def_cfa_offset 40
	popq	%r12
	.cfi_def_cfa_offset 32
	popq	%r13
	.cfi_def_cfa_offset 24
	popq	%r14
	.cfi_def_cfa_offset 16
	popq	%r15
	.cfi_def_cfa_offset 8
	ret
.L557:
	.cfi_restore_state
	endbr64
	movq	%rax, %rdi
	cmpq	$1, %rdx
	je	.L542
.L550:
	call	_Unwind_Resume@PLT
.LEHE8:
.L558:
	endbr64
	movq	%rax, %rdi
	movq	%rdx, %rax
	movq	$0, 16(%rsp)
	movq	$0, 24(%rsp)
	movq	$0, 32(%rsp)
	jmp	.L522
.L556:
	endbr64
	movq	%rax, %rdi
	movq	%rdx, %rax
	jmp	.L522
.L542:
	call	__cxa_begin_catch@PLT
	movq	$0, 16(%rsp)
	movq	$0, 24(%rsp)
	movq	$0, 32(%rsp)
	movl	$0, %ebx
	jmp	.L547
.L530:
	cmpl	$0, 68(%rsp)
	jne	.L551
	movq	8(%rsp), %rdi
	call	_ZdaPv@PLT
	movq	%rbx, %rdi
	call	_ZdaPv@PLT
	pxor	%xmm0, %xmm0
	jmp	.L519
	.cfi_endproc
.LFE11035:
	.section	.gcc_except_table._ZN22basis_set_calculationsIdE25basis_set_Determinant_setEjPdjddS1_,"aG",@progbits,_ZN22basis_set_calculationsIdE25basis_set_Determinant_setEjPdjddS1_,comdat
	.align 4
.LLSDA11035:
	.byte	0xff
	.byte	0x9b
	.uleb128 .LLSDATT11035-.LLSDATTD11035
.LLSDATTD11035:
	.byte	0x1
	.uleb128 .LLSDACSE11035-.LLSDACSB11035
.LLSDACSB11035:
	.uleb128 .LEHB2-.LFB11035
	.uleb128 .LEHE2-.LEHB2
	.uleb128 .L557-.LFB11035
	.uleb128 0x1
	.uleb128 .LEHB3-.LFB11035
	.uleb128 .LEHE3-.LEHB3
	.uleb128 .L560-.LFB11035
	.uleb128 0x1
	.uleb128 .LEHB4-.LFB11035
	.uleb128 .LEHE4-.LEHB4
	.uleb128 .L558-.LFB11035
	.uleb128 0x1
	.uleb128 .LEHB5-.LFB11035
	.uleb128 .LEHE5-.LEHB5
	.uleb128 .L561-.LFB11035
	.uleb128 0x1
	.uleb128 .LEHB6-.LFB11035
	.uleb128 .LEHE6-.LEHB6
	.uleb128 .L559-.LFB11035
	.uleb128 0x1
	.uleb128 .LEHB7-.LFB11035
	.uleb128 .LEHE7-.LEHB7
	.uleb128 .L556-.LFB11035
	.uleb128 0x1
	.uleb128 .LEHB8-.LFB11035
	.uleb128 .LEHE8-.LEHB8
	.uleb128 0
	.uleb128 0
.LLSDACSE11035:
	.byte	0x1
	.byte	0
	.align 4
	.long	DW.ref._ZTIi-.
.LLSDATT11035:
	.section	.text._ZN22basis_set_calculationsIdE25basis_set_Determinant_setEjPdjddS1_,"axG",@progbits,_ZN22basis_set_calculationsIdE25basis_set_Determinant_setEjPdjddS1_,comdat
	.size	_ZN22basis_set_calculationsIdE25basis_set_Determinant_setEjPdjddS1_, .-_ZN22basis_set_calculationsIdE25basis_set_Determinant_setEjPdjddS1_
	.section	.text._ZN22basis_set_calculationsIdE29Wavefunction_lenghts_generateEPdj,"axG",@progbits,_ZN22basis_set_calculationsIdE29Wavefunction_lenghts_generateEPdj,comdat
	.align 2
	.weak	_ZN22basis_set_calculationsIdE29Wavefunction_lenghts_generateEPdj
	.type	_ZN22basis_set_calculationsIdE29Wavefunction_lenghts_generateEPdj, @function
_ZN22basis_set_calculationsIdE29Wavefunction_lenghts_generateEPdj:
.LFB11037:
	.cfi_startproc
	endbr64
	pushq	%r13
	.cfi_def_cfa_offset 16
	.cfi_offset 13, -16
	pushq	%r12
	.cfi_def_cfa_offset 24
	.cfi_offset 12, -24
	pushq	%rbp
	.cfi_def_cfa_offset 32
	.cfi_offset 6, -32
	pushq	%rbx
	.cfi_def_cfa_offset 40
	.cfi_offset 3, -40
	movq	%rsi, %r10
	movl	%edx, %edi
	leal	1(%rdx,%rdx), %ecx
	movl	%edx, %ebx
	negl	%ebx
	movl	%ecx, %r13d
	imull	%ecx, %r13d
	movl	%edx, %r12d
	movl	%ebx, %ebp
.L579:
	movl	%ebp, %r9d
	imull	%ebp, %r9d
	movl	%r12d, %esi
	movl	%ebx, %r11d
.L578:
	movl	%r11d, %r8d
	imull	%r11d, %r8d
	movl	%ebx, %eax
.L577:
	movl	%eax, %edx
	imull	%eax, %edx
	addl	%r8d, %edx
	addl	%r9d, %edx
	pxor	%xmm0, %xmm0
	cvtsi2sdl	%edx, %xmm0
	sqrtsd	%xmm0, %xmm0
	leal	(%rax,%rsi), %edx
	movsd	%xmm0, (%r10,%rdx,8)
	addl	$1, %eax
	leal	(%rax,%rdi), %edx
	cmpl	%ecx, %edx
	jb	.L577
	addl	$1, %r11d
	addl	%ecx, %esi
	leal	(%rdi,%r11), %eax
	cmpl	%ecx, %eax
	jb	.L578
	addl	$1, %ebp
	addl	%r13d, %r12d
	leal	(%rdi,%rbp), %eax
	cmpl	%ecx, %eax
	jb	.L579
	pxor	%xmm0, %xmm0
	popq	%rbx
	.cfi_def_cfa_offset 32
	popq	%rbp
	.cfi_def_cfa_offset 24
	popq	%r12
	.cfi_def_cfa_offset 16
	popq	%r13
	.cfi_def_cfa_offset 8
	ret
	.cfi_endproc
.LFE11037:
	.size	_ZN22basis_set_calculationsIdE29Wavefunction_lenghts_generateEPdj, .-_ZN22basis_set_calculationsIdE29Wavefunction_lenghts_generateEPdj
	.section	.text._ZN22basis_set_calculationsIdE24Wavefunction_1s_generateEPdS1_idj,"axG",@progbits,_ZN22basis_set_calculationsIdE24Wavefunction_1s_generateEPdS1_idj,comdat
	.align 2
	.weak	_ZN22basis_set_calculationsIdE24Wavefunction_1s_generateEPdS1_idj
	.type	_ZN22basis_set_calculationsIdE24Wavefunction_1s_generateEPdS1_idj, @function
_ZN22basis_set_calculationsIdE24Wavefunction_1s_generateEPdS1_idj:
.LFB11038:
	.cfi_startproc
	endbr64
	pushq	%r15
	.cfi_def_cfa_offset 16
	.cfi_offset 15, -16
	pushq	%r14
	.cfi_def_cfa_offset 24
	.cfi_offset 14, -24
	pushq	%r13
	.cfi_def_cfa_offset 32
	.cfi_offset 13, -32
	pushq	%r12
	.cfi_def_cfa_offset 40
	.cfi_offset 12, -40
	pushq	%rbp
	.cfi_def_cfa_offset 48
	.cfi_offset 6, -48
	pushq	%rbx
	.cfi_def_cfa_offset 56
	.cfi_offset 3, -56
	subq	$56, %rsp
	.cfi_def_cfa_offset 112
	movq	%rsi, %r15
	movq	%rdx, %r14
	movl	%ecx, %eax
	movapd	%xmm0, %xmm1
	movsd	80(%rdi), %xmm3
	sqrtsd	%xmm3, %xmm3
	pxor	%xmm0, %xmm0
	cvtsi2sdl	%ecx, %xmm0
	movapd	%xmm0, %xmm2
	sqrtsd	%xmm2, %xmm2
	mulsd	%xmm0, %xmm0
	divsd	%xmm3, %xmm0
	divsd	%xmm2, %xmm0
	movsd	%xmm0, 16(%rsp)
	addl	%eax, %eax
	pxor	%xmm0, %xmm0
	cvtsi2sdl	%eax, %xmm0
	mulsd	%xmm1, %xmm0
	leal	1(%r8,%r8), %r12d
	movl	%r12d, %eax
	imull	%r12d, %eax
	movl	%eax, 44(%rsp)
	movl	$0, 40(%rsp)
	movq	$0x000000000, 8(%rsp)
	movl	$0, 36(%rsp)
	mulsd	.LC7(%rip), %xmm0
	movsd	%xmm0, 24(%rsp)
	jmp	.L585
.L593:
	mulsd	24(%rsp), %xmm0
	call	exp@PLT
	mulsd	16(%rsp), %xmm0
	movsd	%xmm0, (%r15,%rbp,8)
	mulsd	%xmm0, %xmm0
	addsd	8(%rsp), %xmm0
	movsd	%xmm0, 8(%rsp)
.L588:
	addl	$1, %ebx
	cmpl	%r12d, %ebx
	jnb	.L596
.L589:
	leal	(%rbx,%r13), %ebp
	movsd	(%r14,%rbp,8), %xmm0
	pxor	%xmm4, %xmm4
	ucomisd	%xmm4, %xmm0
	jp	.L593
	jne	.L593
	movq	$0x000000000, (%r15,%rbp,8)
	jmp	.L588
.L596:
	addl	$1, 32(%rsp)
	movl	32(%rsp), %eax
	addl	%r12d, %r13d
	cmpl	%r12d, %eax
	jnb	.L590
.L592:
	movl	$0, %ebx
	jmp	.L589
.L590:
	addl	$1, 36(%rsp)
	movl	36(%rsp), %eax
	movl	44(%rsp), %ecx
	addl	%ecx, 40(%rsp)
	cmpl	%r12d, %eax
	jnb	.L591
.L585:
	movl	40(%rsp), %r13d
	movl	$0, 32(%rsp)
	jmp	.L592
.L591:
	movsd	8(%rsp), %xmm0
	sqrtsd	%xmm0, %xmm0
	addq	$56, %rsp
	.cfi_def_cfa_offset 56
	popq	%rbx
	.cfi_def_cfa_offset 48
	popq	%rbp
	.cfi_def_cfa_offset 40
	popq	%r12
	.cfi_def_cfa_offset 32
	popq	%r13
	.cfi_def_cfa_offset 24
	popq	%r14
	.cfi_def_cfa_offset 16
	popq	%r15
	.cfi_def_cfa_offset 8
	ret
	.cfi_endproc
.LFE11038:
	.size	_ZN22basis_set_calculationsIdE24Wavefunction_1s_generateEPdS1_idj, .-_ZN22basis_set_calculationsIdE24Wavefunction_1s_generateEPdS1_idj
	.section	.text._ZN22basis_set_calculationsIdE24Wavefunction_2s_generateEPdS1_jdj,"axG",@progbits,_ZN22basis_set_calculationsIdE24Wavefunction_2s_generateEPdS1_jdj,comdat
	.align 2
	.weak	_ZN22basis_set_calculationsIdE24Wavefunction_2s_generateEPdS1_jdj
	.type	_ZN22basis_set_calculationsIdE24Wavefunction_2s_generateEPdS1_jdj, @function
_ZN22basis_set_calculationsIdE24Wavefunction_2s_generateEPdS1_jdj:
.LFB11039:
	.cfi_startproc
	endbr64
	pushq	%r15
	.cfi_def_cfa_offset 16
	.cfi_offset 15, -16
	pushq	%r14
	.cfi_def_cfa_offset 24
	.cfi_offset 14, -24
	pushq	%r13
	.cfi_def_cfa_offset 32
	.cfi_offset 13, -32
	pushq	%r12
	.cfi_def_cfa_offset 40
	.cfi_offset 12, -40
	pushq	%rbp
	.cfi_def_cfa_offset 48
	.cfi_offset 6, -48
	pushq	%rbx
	.cfi_def_cfa_offset 56
	.cfi_offset 3, -56
	subq	$56, %rsp
	.cfi_def_cfa_offset 112
	movq	%rsi, %r15
	movq	%rdx, %r14
	movapd	%xmm0, %xmm3
	movsd	80(%rdi), %xmm0
	addsd	%xmm0, %xmm0
	sqrtsd	%xmm0, %xmm0
	movl	%ecx, %ecx
	pxor	%xmm2, %xmm2
	cvtsi2sdq	%rcx, %xmm2
	movapd	%xmm2, %xmm4
	sqrtsd	%xmm4, %xmm4
	movsd	.LC11(%rip), %xmm1
	divsd	%xmm0, %xmm1
	movapd	%xmm2, %xmm0
	mulsd	%xmm2, %xmm0
	mulsd	%xmm0, %xmm1
	divsd	%xmm4, %xmm1
	movsd	%xmm1, 16(%rsp)
	mulsd	%xmm3, %xmm2
	movsd	%xmm2, 24(%rsp)
	leal	1(%r8,%r8), %r12d
	movl	%r12d, %eax
	imull	%r12d, %eax
	movl	%eax, 44(%rsp)
	movl	$0, 40(%rsp)
	movq	$0x000000000, (%rsp)
	movl	$0, 36(%rsp)
	jmp	.L600
.L608:
	mulsd	24(%rsp), %xmm0
	movsd	%xmm0, 8(%rsp)
	mulsd	.LC7(%rip), %xmm0
	call	exp@PLT
	movapd	%xmm0, %xmm1
	movsd	.LC20(%rip), %xmm3
	subsd	8(%rsp), %xmm3
	movapd	%xmm3, %xmm0
	mulsd	16(%rsp), %xmm0
	mulsd	%xmm1, %xmm0
	movsd	%xmm0, (%r15,%rbp,8)
	mulsd	%xmm0, %xmm0
	addsd	(%rsp), %xmm0
	movsd	%xmm0, (%rsp)
.L603:
	addl	$1, %ebx
	cmpl	%r12d, %ebx
	jnb	.L611
.L604:
	leal	(%rbx,%r13), %ebp
	movsd	(%r14,%rbp,8), %xmm0
	pxor	%xmm6, %xmm6
	ucomisd	%xmm6, %xmm0
	jp	.L608
	jne	.L608
	movq	$0x000000000, (%r15,%rbp,8)
	jmp	.L603
.L611:
	addl	$1, 32(%rsp)
	movl	32(%rsp), %eax
	addl	%r12d, %r13d
	cmpl	%r12d, %eax
	jnb	.L605
.L607:
	movl	$0, %ebx
	jmp	.L604
.L605:
	addl	$1, 36(%rsp)
	movl	36(%rsp), %eax
	movl	44(%rsp), %esi
	addl	%esi, 40(%rsp)
	cmpl	%r12d, %eax
	jnb	.L606
.L600:
	movl	40(%rsp), %r13d
	movl	$0, 32(%rsp)
	jmp	.L607
.L606:
	movsd	(%rsp), %xmm0
	sqrtsd	%xmm0, %xmm0
	addq	$56, %rsp
	.cfi_def_cfa_offset 56
	popq	%rbx
	.cfi_def_cfa_offset 48
	popq	%rbp
	.cfi_def_cfa_offset 40
	popq	%r12
	.cfi_def_cfa_offset 32
	popq	%r13
	.cfi_def_cfa_offset 24
	popq	%r14
	.cfi_def_cfa_offset 16
	popq	%r15
	.cfi_def_cfa_offset 8
	ret
	.cfi_endproc
.LFE11039:
	.size	_ZN22basis_set_calculationsIdE24Wavefunction_2s_generateEPdS1_jdj, .-_ZN22basis_set_calculationsIdE24Wavefunction_2s_generateEPdS1_jdj
	.section	.text._ZN22basis_set_calculationsIdE24Wavefunction_3s_generateEPdS1_jdj,"axG",@progbits,_ZN22basis_set_calculationsIdE24Wavefunction_3s_generateEPdS1_jdj,comdat
	.align 2
	.weak	_ZN22basis_set_calculationsIdE24Wavefunction_3s_generateEPdS1_jdj
	.type	_ZN22basis_set_calculationsIdE24Wavefunction_3s_generateEPdS1_jdj, @function
_ZN22basis_set_calculationsIdE24Wavefunction_3s_generateEPdS1_jdj:
.LFB11040:
	.cfi_startproc
	endbr64
	pushq	%r15
	.cfi_def_cfa_offset 16
	.cfi_offset 15, -16
	pushq	%r14
	.cfi_def_cfa_offset 24
	.cfi_offset 14, -24
	pushq	%r13
	.cfi_def_cfa_offset 32
	.cfi_offset 13, -32
	pushq	%r12
	.cfi_def_cfa_offset 40
	.cfi_offset 12, -40
	pushq	%rbp
	.cfi_def_cfa_offset 48
	.cfi_offset 6, -48
	pushq	%rbx
	.cfi_def_cfa_offset 56
	.cfi_offset 3, -56
	subq	$56, %rsp
	.cfi_def_cfa_offset 112
	movq	%rsi, %r15
	movq	%rdx, %r14
	movl	%ecx, %eax
	movapd	%xmm0, %xmm3
	movsd	.LC15(%rip), %xmm2
	mulsd	80(%rdi), %xmm2
	sqrtsd	%xmm2, %xmm2
	movl	%ecx, %edx
	pxor	%xmm1, %xmm1
	cvtsi2sdq	%rdx, %xmm1
	movapd	%xmm1, %xmm4
	sqrtsd	%xmm4, %xmm4
	movsd	.LC21(%rip), %xmm0
	divsd	%xmm2, %xmm0
	mulsd	%xmm1, %xmm1
	mulsd	%xmm1, %xmm0
	divsd	%xmm4, %xmm0
	movsd	%xmm0, 16(%rsp)
	leal	(%rax,%rax), %eax
	movl	$2863311531, %edx
	imulq	%rdx, %rax
	shrq	$33, %rax
	pxor	%xmm0, %xmm0
	cvtsi2sdq	%rax, %xmm0
	mulsd	%xmm3, %xmm0
	movsd	%xmm0, 24(%rsp)
	leal	1(%r8,%r8), %r12d
	movl	%r12d, %eax
	imull	%r12d, %eax
	movl	%eax, 44(%rsp)
	movl	$0, 40(%rsp)
	movq	$0x000000000, (%rsp)
	movl	$0, 36(%rsp)
	jmp	.L617
.L625:
	mulsd	24(%rsp), %xmm0
	movsd	%xmm0, 8(%rsp)
	mulsd	.LC7(%rip), %xmm0
	call	exp@PLT
	movapd	%xmm0, %xmm2
	movsd	.LC5(%rip), %xmm3
	movsd	8(%rsp), %xmm5
	subsd	%xmm5, %xmm3
	movapd	%xmm3, %xmm0
	mulsd	.LC22(%rip), %xmm0
	movapd	%xmm5, %xmm1
	mulsd	%xmm5, %xmm1
	addsd	%xmm1, %xmm0
	mulsd	16(%rsp), %xmm0
	mulsd	%xmm2, %xmm0
	movsd	%xmm0, (%r15,%rbp,8)
	mulsd	%xmm0, %xmm0
	addsd	(%rsp), %xmm0
	movsd	%xmm0, (%rsp)
.L620:
	addl	$1, %ebx
	cmpl	%r12d, %ebx
	jnb	.L628
.L621:
	leal	(%rbx,%r13), %ebp
	movsd	(%r14,%rbp,8), %xmm0
	pxor	%xmm6, %xmm6
	ucomisd	%xmm6, %xmm0
	jp	.L625
	jne	.L625
	movq	$0x000000000, (%r15,%rbp,8)
	jmp	.L620
.L628:
	addl	$1, 32(%rsp)
	movl	32(%rsp), %eax
	addl	%r12d, %r13d
	cmpl	%r12d, %eax
	jnb	.L622
.L624:
	movl	$0, %ebx
	jmp	.L621
.L622:
	addl	$1, 36(%rsp)
	movl	36(%rsp), %eax
	movl	44(%rsp), %esi
	addl	%esi, 40(%rsp)
	cmpl	%r12d, %eax
	jnb	.L623
.L617:
	movl	40(%rsp), %r13d
	movl	$0, 32(%rsp)
	jmp	.L624
.L623:
	movsd	(%rsp), %xmm0
	sqrtsd	%xmm0, %xmm0
	addq	$56, %rsp
	.cfi_def_cfa_offset 56
	popq	%rbx
	.cfi_def_cfa_offset 48
	popq	%rbp
	.cfi_def_cfa_offset 40
	popq	%r12
	.cfi_def_cfa_offset 32
	popq	%r13
	.cfi_def_cfa_offset 24
	popq	%r14
	.cfi_def_cfa_offset 16
	popq	%r15
	.cfi_def_cfa_offset 8
	ret
	.cfi_endproc
.LFE11040:
	.size	_ZN22basis_set_calculationsIdE24Wavefunction_3s_generateEPdS1_jdj, .-_ZN22basis_set_calculationsIdE24Wavefunction_3s_generateEPdS1_jdj
	.section	.text._ZN22basis_set_calculationsIdE24Wavefunction_4s_generateEPdS1_jdj,"axG",@progbits,_ZN22basis_set_calculationsIdE24Wavefunction_4s_generateEPdS1_jdj,comdat
	.align 2
	.weak	_ZN22basis_set_calculationsIdE24Wavefunction_4s_generateEPdS1_jdj
	.type	_ZN22basis_set_calculationsIdE24Wavefunction_4s_generateEPdS1_jdj, @function
_ZN22basis_set_calculationsIdE24Wavefunction_4s_generateEPdS1_jdj:
.LFB11041:
	.cfi_startproc
	endbr64
	pushq	%r15
	.cfi_def_cfa_offset 16
	.cfi_offset 15, -16
	pushq	%r14
	.cfi_def_cfa_offset 24
	.cfi_offset 14, -24
	pushq	%r13
	.cfi_def_cfa_offset 32
	.cfi_offset 13, -32
	pushq	%r12
	.cfi_def_cfa_offset 40
	.cfi_offset 12, -40
	pushq	%rbp
	.cfi_def_cfa_offset 48
	.cfi_offset 6, -48
	pushq	%rbx
	.cfi_def_cfa_offset 56
	.cfi_offset 3, -56
	subq	$72, %rsp
	.cfi_def_cfa_offset 128
	movq	%rsi, %r15
	movq	%rdx, %r14
	movl	%ecx, %eax
	movapd	%xmm0, %xmm2
	movsd	80(%rdi), %xmm4
	sqrtsd	%xmm4, %xmm4
	movl	%ecx, %edx
	pxor	%xmm1, %xmm1
	cvtsi2sdq	%rdx, %xmm1
	movapd	%xmm1, %xmm3
	sqrtsd	%xmm3, %xmm3
	movsd	.LC23(%rip), %xmm0
	divsd	%xmm4, %xmm0
	mulsd	%xmm1, %xmm1
	mulsd	%xmm1, %xmm0
	divsd	%xmm3, %xmm0
	movsd	%xmm0, 32(%rsp)
	shrl	%eax
	movl	%eax, %eax
	pxor	%xmm0, %xmm0
	cvtsi2sdq	%rax, %xmm0
	mulsd	%xmm2, %xmm0
	movsd	%xmm0, 40(%rsp)
	leal	1(%r8,%r8), %r12d
	movl	%r12d, %eax
	imull	%r12d, %eax
	movl	%eax, 60(%rsp)
	movl	$0, 56(%rsp)
	movq	$0x000000000, 8(%rsp)
	movl	$0, 52(%rsp)
	jmp	.L634
.L642:
	mulsd	40(%rsp), %xmm0
	movapd	%xmm0, %xmm5
	mulsd	%xmm0, %xmm5
	movsd	%xmm5, 16(%rsp)
	movsd	%xmm0, 24(%rsp)
	mulsd	.LC7(%rip), %xmm0
	call	exp@PLT
	movapd	%xmm0, %xmm2
	movsd	16(%rsp), %xmm5
	movapd	%xmm5, %xmm7
	mulsd	.LC24(%rip), %xmm7
	movapd	%xmm7, %xmm0
	movsd	24(%rsp), %xmm6
	movapd	%xmm6, %xmm1
	mulsd	.LC25(%rip), %xmm1
	subsd	%xmm1, %xmm0
	movapd	%xmm5, %xmm1
	mulsd	%xmm6, %xmm1
	movsd	.LC26(%rip), %xmm3
	subsd	%xmm1, %xmm3
	addsd	%xmm3, %xmm0
	mulsd	32(%rsp), %xmm0
	mulsd	%xmm2, %xmm0
	movsd	%xmm0, (%r15,%rbp,8)
	mulsd	%xmm0, %xmm0
	addsd	8(%rsp), %xmm0
	movsd	%xmm0, 8(%rsp)
.L637:
	addl	$1, %ebx
	cmpl	%r12d, %ebx
	jnb	.L645
.L638:
	leal	0(%r13,%rbx), %ebp
	movsd	(%r14,%rbp,8), %xmm0
	pxor	%xmm4, %xmm4
	ucomisd	%xmm4, %xmm0
	jp	.L642
	jne	.L642
	movq	$0x000000000, (%r15,%rbp,8)
	jmp	.L637
.L645:
	addl	$1, 48(%rsp)
	movl	48(%rsp), %eax
	addl	%r12d, %r13d
	cmpl	%r12d, %eax
	jnb	.L639
.L641:
	movl	$0, %ebx
	jmp	.L638
.L639:
	addl	$1, 52(%rsp)
	movl	52(%rsp), %eax
	movl	60(%rsp), %esi
	addl	%esi, 56(%rsp)
	cmpl	%r12d, %eax
	jnb	.L640
.L634:
	movl	56(%rsp), %r13d
	movl	$0, 48(%rsp)
	jmp	.L641
.L640:
	movsd	8(%rsp), %xmm0
	sqrtsd	%xmm0, %xmm0
	addq	$72, %rsp
	.cfi_def_cfa_offset 56
	popq	%rbx
	.cfi_def_cfa_offset 48
	popq	%rbp
	.cfi_def_cfa_offset 40
	popq	%r12
	.cfi_def_cfa_offset 32
	popq	%r13
	.cfi_def_cfa_offset 24
	popq	%r14
	.cfi_def_cfa_offset 16
	popq	%r15
	.cfi_def_cfa_offset 8
	ret
	.cfi_endproc
.LFE11041:
	.size	_ZN22basis_set_calculationsIdE24Wavefunction_4s_generateEPdS1_jdj, .-_ZN22basis_set_calculationsIdE24Wavefunction_4s_generateEPdS1_jdj
	.section	.text._ZN22basis_set_calculationsIdE24Wavefunction_5s_generateEPdS1_jdj,"axG",@progbits,_ZN22basis_set_calculationsIdE24Wavefunction_5s_generateEPdS1_jdj,comdat
	.align 2
	.weak	_ZN22basis_set_calculationsIdE24Wavefunction_5s_generateEPdS1_jdj
	.type	_ZN22basis_set_calculationsIdE24Wavefunction_5s_generateEPdS1_jdj, @function
_ZN22basis_set_calculationsIdE24Wavefunction_5s_generateEPdS1_jdj:
.LFB11042:
	.cfi_startproc
	endbr64
	pushq	%r15
	.cfi_def_cfa_offset 16
	.cfi_offset 15, -16
	pushq	%r14
	.cfi_def_cfa_offset 24
	.cfi_offset 14, -24
	pushq	%r13
	.cfi_def_cfa_offset 32
	.cfi_offset 13, -32
	pushq	%r12
	.cfi_def_cfa_offset 40
	.cfi_offset 12, -40
	pushq	%rbp
	.cfi_def_cfa_offset 48
	.cfi_offset 6, -48
	pushq	%rbx
	.cfi_def_cfa_offset 56
	.cfi_offset 3, -56
	subq	$72, %rsp
	.cfi_def_cfa_offset 128
	movq	%rsi, %r15
	movq	%rdx, %r14
	movl	%ecx, %eax
	movapd	%xmm0, %xmm3
	movsd	.LC27(%rip), %xmm2
	mulsd	80(%rdi), %xmm2
	sqrtsd	%xmm2, %xmm2
	movl	%ecx, %edx
	pxor	%xmm1, %xmm1
	cvtsi2sdq	%rdx, %xmm1
	movapd	%xmm1, %xmm4
	sqrtsd	%xmm4, %xmm4
	movsd	.LC28(%rip), %xmm0
	divsd	%xmm2, %xmm0
	mulsd	%xmm1, %xmm1
	mulsd	%xmm1, %xmm0
	divsd	%xmm4, %xmm0
	movsd	%xmm0, 32(%rsp)
	leal	(%rax,%rax), %eax
	movl	$3435973837, %edx
	imulq	%rdx, %rax
	shrq	$34, %rax
	pxor	%xmm0, %xmm0
	cvtsi2sdq	%rax, %xmm0
	mulsd	%xmm3, %xmm0
	movsd	%xmm0, 40(%rsp)
	leal	1(%r8,%r8), %r12d
	movl	%r12d, %eax
	imull	%r12d, %eax
	movl	%eax, 60(%rsp)
	movl	$0, 56(%rsp)
	movq	$0x000000000, (%rsp)
	movl	$0, 52(%rsp)
	jmp	.L651
.L659:
	mulsd	40(%rsp), %xmm0
	movapd	%xmm0, %xmm5
	mulsd	%xmm0, %xmm5
	movsd	%xmm5, 16(%rsp)
	movapd	%xmm5, %xmm7
	mulsd	%xmm0, %xmm7
	movsd	%xmm7, 8(%rsp)
	movsd	%xmm0, 24(%rsp)
	mulsd	.LC7(%rip), %xmm0
	call	exp@PLT
	movapd	%xmm0, %xmm2
	movsd	16(%rsp), %xmm3
	mulsd	.LC29(%rip), %xmm3
	movapd	%xmm3, %xmm0
	movsd	24(%rsp), %xmm6
	movapd	%xmm6, %xmm1
	mulsd	.LC30(%rip), %xmm1
	subsd	%xmm1, %xmm0
	movsd	8(%rsp), %xmm5
	mulsd	%xmm5, %xmm6
	movapd	%xmm6, %xmm1
	addsd	.LC29(%rip), %xmm1
	addsd	%xmm1, %xmm0
	mulsd	.LC31(%rip), %xmm5
	subsd	%xmm5, %xmm0
	mulsd	32(%rsp), %xmm0
	mulsd	%xmm2, %xmm0
	movsd	%xmm0, (%r15,%rbp,8)
	mulsd	%xmm0, %xmm0
	addsd	(%rsp), %xmm0
	movsd	%xmm0, (%rsp)
.L654:
	addl	$1, %ebx
	cmpl	%r12d, %ebx
	jnb	.L662
.L655:
	leal	0(%r13,%rbx), %ebp
	movsd	(%r14,%rbp,8), %xmm0
	pxor	%xmm4, %xmm4
	ucomisd	%xmm4, %xmm0
	jp	.L659
	jne	.L659
	movq	$0x000000000, (%r15,%rbp,8)
	jmp	.L654
.L662:
	addl	$1, 48(%rsp)
	movl	48(%rsp), %eax
	addl	%r12d, %r13d
	cmpl	%r12d, %eax
	jnb	.L656
.L658:
	movl	$0, %ebx
	jmp	.L655
.L656:
	addl	$1, 52(%rsp)
	movl	52(%rsp), %eax
	movl	60(%rsp), %esi
	addl	%esi, 56(%rsp)
	cmpl	%r12d, %eax
	jnb	.L657
.L651:
	movl	56(%rsp), %r13d
	movl	$0, 48(%rsp)
	jmp	.L658
.L657:
	movsd	(%rsp), %xmm0
	sqrtsd	%xmm0, %xmm0
	addq	$72, %rsp
	.cfi_def_cfa_offset 56
	popq	%rbx
	.cfi_def_cfa_offset 48
	popq	%rbp
	.cfi_def_cfa_offset 40
	popq	%r12
	.cfi_def_cfa_offset 32
	popq	%r13
	.cfi_def_cfa_offset 24
	popq	%r14
	.cfi_def_cfa_offset 16
	popq	%r15
	.cfi_def_cfa_offset 8
	ret
	.cfi_endproc
.LFE11042:
	.size	_ZN22basis_set_calculationsIdE24Wavefunction_5s_generateEPdS1_jdj, .-_ZN22basis_set_calculationsIdE24Wavefunction_5s_generateEPdS1_jdj
	.section	.text._ZN22basis_set_calculationsIdE24Wavefunction_6s_generateEPdS1_jdj,"axG",@progbits,_ZN22basis_set_calculationsIdE24Wavefunction_6s_generateEPdS1_jdj,comdat
	.align 2
	.weak	_ZN22basis_set_calculationsIdE24Wavefunction_6s_generateEPdS1_jdj
	.type	_ZN22basis_set_calculationsIdE24Wavefunction_6s_generateEPdS1_jdj, @function
_ZN22basis_set_calculationsIdE24Wavefunction_6s_generateEPdS1_jdj:
.LFB11043:
	.cfi_startproc
	endbr64
	pushq	%r15
	.cfi_def_cfa_offset 16
	.cfi_offset 15, -16
	pushq	%r14
	.cfi_def_cfa_offset 24
	.cfi_offset 14, -24
	pushq	%r13
	.cfi_def_cfa_offset 32
	.cfi_offset 13, -32
	pushq	%r12
	.cfi_def_cfa_offset 40
	.cfi_offset 12, -40
	pushq	%rbp
	.cfi_def_cfa_offset 48
	.cfi_offset 6, -48
	pushq	%rbx
	.cfi_def_cfa_offset 56
	.cfi_offset 3, -56
	subq	$88, %rsp
	.cfi_def_cfa_offset 144
	movq	%rsi, %r15
	movq	%rdx, %r14
	movapd	%xmm0, %xmm3
	movsd	.LC22(%rip), %xmm2
	mulsd	80(%rdi), %xmm2
	sqrtsd	%xmm2, %xmm2
	movl	%ecx, %edx
	pxor	%xmm1, %xmm1
	cvtsi2sdq	%rdx, %xmm1
	movapd	%xmm1, %xmm4
	sqrtsd	%xmm4, %xmm4
	movsd	.LC32(%rip), %xmm0
	divsd	%xmm2, %xmm0
	mulsd	%xmm1, %xmm1
	mulsd	%xmm1, %xmm0
	divsd	%xmm4, %xmm0
	movsd	%xmm0, 48(%rsp)
	movl	%ecx, %eax
	movl	$2863311531, %edx
	imulq	%rdx, %rax
	shrq	$33, %rax
	pxor	%xmm0, %xmm0
	cvtsi2sdq	%rax, %xmm0
	mulsd	%xmm3, %xmm0
	movsd	%xmm0, 56(%rsp)
	leal	1(%r8,%r8), %r12d
	movl	%r12d, %eax
	imull	%r12d, %eax
	movl	%eax, 76(%rsp)
	movl	$0, 72(%rsp)
	movq	$0x000000000, 8(%rsp)
	movl	$0, 68(%rsp)
	jmp	.L668
.L676:
	mulsd	56(%rsp), %xmm0
	movapd	%xmm0, %xmm7
	mulsd	%xmm0, %xmm7
	movsd	%xmm7, 32(%rsp)
	movapd	%xmm7, %xmm4
	mulsd	%xmm0, %xmm4
	movapd	%xmm4, %xmm5
	movsd	%xmm4, 16(%rsp)
	mulsd	%xmm0, %xmm5
	movsd	%xmm5, 24(%rsp)
	movsd	%xmm0, 40(%rsp)
	mulsd	.LC7(%rip), %xmm0
	call	exp@PLT
	movapd	%xmm0, %xmm2
	movsd	24(%rsp), %xmm5
	movapd	%xmm5, %xmm3
	mulsd	.LC33(%rip), %xmm3
	movapd	%xmm3, %xmm0
	movsd	16(%rsp), %xmm1
	mulsd	.LC34(%rip), %xmm1
	subsd	%xmm1, %xmm0
	movsd	32(%rsp), %xmm1
	mulsd	.LC35(%rip), %xmm1
	movsd	40(%rsp), %xmm6
	movapd	%xmm6, %xmm3
	mulsd	.LC36(%rip), %xmm3
	subsd	%xmm3, %xmm1
	addsd	%xmm1, %xmm0
	mulsd	%xmm6, %xmm5
	movsd	.LC37(%rip), %xmm3
	subsd	%xmm5, %xmm3
	addsd	%xmm3, %xmm0
	mulsd	48(%rsp), %xmm0
	mulsd	%xmm2, %xmm0
	movsd	%xmm0, (%r15,%rbp,8)
	mulsd	%xmm0, %xmm0
	addsd	8(%rsp), %xmm0
	movsd	%xmm0, 8(%rsp)
.L671:
	addl	$1, %ebx
	cmpl	%r12d, %ebx
	jnb	.L679
.L672:
	leal	0(%r13,%rbx), %ebp
	movsd	(%r14,%rbp,8), %xmm0
	pxor	%xmm2, %xmm2
	ucomisd	%xmm2, %xmm0
	jp	.L676
	jne	.L676
	movq	$0x000000000, (%r15,%rbp,8)
	jmp	.L671
.L679:
	addl	$1, 64(%rsp)
	movl	64(%rsp), %eax
	addl	%r12d, %r13d
	cmpl	%r12d, %eax
	jnb	.L673
.L675:
	movl	$0, %ebx
	jmp	.L672
.L673:
	addl	$1, 68(%rsp)
	movl	68(%rsp), %eax
	movl	76(%rsp), %esi
	addl	%esi, 72(%rsp)
	cmpl	%r12d, %eax
	jnb	.L674
.L668:
	movl	72(%rsp), %r13d
	movl	$0, 64(%rsp)
	jmp	.L675
.L674:
	movsd	8(%rsp), %xmm0
	sqrtsd	%xmm0, %xmm0
	addq	$88, %rsp
	.cfi_def_cfa_offset 56
	popq	%rbx
	.cfi_def_cfa_offset 48
	popq	%rbp
	.cfi_def_cfa_offset 40
	popq	%r12
	.cfi_def_cfa_offset 32
	popq	%r13
	.cfi_def_cfa_offset 24
	popq	%r14
	.cfi_def_cfa_offset 16
	popq	%r15
	.cfi_def_cfa_offset 8
	ret
	.cfi_endproc
.LFE11043:
	.size	_ZN22basis_set_calculationsIdE24Wavefunction_6s_generateEPdS1_jdj, .-_ZN22basis_set_calculationsIdE24Wavefunction_6s_generateEPdS1_jdj
	.section	.text._ZN22basis_set_calculationsIdE24Wavefunction_7s_generateEPdS1_jdj,"axG",@progbits,_ZN22basis_set_calculationsIdE24Wavefunction_7s_generateEPdS1_jdj,comdat
	.align 2
	.weak	_ZN22basis_set_calculationsIdE24Wavefunction_7s_generateEPdS1_jdj
	.type	_ZN22basis_set_calculationsIdE24Wavefunction_7s_generateEPdS1_jdj, @function
_ZN22basis_set_calculationsIdE24Wavefunction_7s_generateEPdS1_jdj:
.LFB11044:
	.cfi_startproc
	endbr64
	pushq	%r15
	.cfi_def_cfa_offset 16
	.cfi_offset 15, -16
	pushq	%r14
	.cfi_def_cfa_offset 24
	.cfi_offset 14, -24
	pushq	%r13
	.cfi_def_cfa_offset 32
	.cfi_offset 13, -32
	pushq	%r12
	.cfi_def_cfa_offset 40
	.cfi_offset 12, -40
	pushq	%rbp
	.cfi_def_cfa_offset 48
	.cfi_offset 6, -48
	pushq	%rbx
	.cfi_def_cfa_offset 56
	.cfi_offset 3, -56
	subq	$88, %rsp
	.cfi_def_cfa_offset 144
	movq	%rsi, %r15
	movq	%rdx, %r14
	movl	%ecx, %eax
	movapd	%xmm0, %xmm3
	movsd	.LC38(%rip), %xmm2
	mulsd	80(%rdi), %xmm2
	sqrtsd	%xmm2, %xmm2
	movl	%ecx, %edx
	pxor	%xmm1, %xmm1
	cvtsi2sdq	%rdx, %xmm1
	movapd	%xmm1, %xmm4
	sqrtsd	%xmm4, %xmm4
	movsd	.LC39(%rip), %xmm0
	divsd	%xmm2, %xmm0
	mulsd	%xmm1, %xmm1
	mulsd	%xmm1, %xmm0
	divsd	%xmm4, %xmm0
	movsd	%xmm0, 48(%rsp)
	addl	%eax, %eax
	movl	%eax, %edx
	imulq	$613566757, %rdx, %rdx
	shrq	$32, %rdx
	subl	%edx, %eax
	shrl	%eax
	addl	%edx, %eax
	shrl	$2, %eax
	movl	%eax, %eax
	pxor	%xmm0, %xmm0
	cvtsi2sdq	%rax, %xmm0
	mulsd	%xmm3, %xmm0
	movsd	%xmm0, 56(%rsp)
	leal	1(%r8,%r8), %r12d
	movl	%r12d, %ebp
	imull	%r12d, %ebp
	movl	$0, %ecx
	movq	$0x000000000, (%rsp)
	movl	$0, %eax
	movl	%ebp, 76(%rsp)
	jmp	.L685
.L693:
	mulsd	56(%rsp), %xmm0
	movapd	%xmm0, %xmm7
	mulsd	%xmm0, %xmm7
	movsd	%xmm7, 32(%rsp)
	movapd	%xmm7, %xmm4
	mulsd	%xmm0, %xmm4
	movapd	%xmm4, %xmm6
	movsd	%xmm4, 8(%rsp)
	mulsd	%xmm0, %xmm6
	movapd	%xmm6, %xmm3
	movsd	%xmm6, 16(%rsp)
	mulsd	%xmm0, %xmm3
	movsd	%xmm3, 24(%rsp)
	movsd	%xmm0, 40(%rsp)
	mulsd	.LC7(%rip), %xmm0
	call	exp@PLT
	movapd	%xmm0, %xmm3
	movsd	16(%rsp), %xmm2
	mulsd	.LC40(%rip), %xmm2
	movapd	%xmm2, %xmm0
	movsd	8(%rsp), %xmm1
	mulsd	.LC41(%rip), %xmm1
	subsd	%xmm1, %xmm0
	movsd	32(%rsp), %xmm1
	mulsd	.LC42(%rip), %xmm1
	movsd	40(%rsp), %xmm5
	movapd	%xmm5, %xmm2
	mulsd	.LC43(%rip), %xmm2
	subsd	%xmm2, %xmm1
	addsd	%xmm1, %xmm0
	movsd	24(%rsp), %xmm6
	mulsd	%xmm6, %xmm5
	movapd	%xmm5, %xmm1
	addsd	.LC44(%rip), %xmm1
	mulsd	.LC45(%rip), %xmm6
	subsd	%xmm6, %xmm1
	addsd	%xmm1, %xmm0
	mulsd	48(%rsp), %xmm0
	mulsd	%xmm3, %xmm0
	movsd	%xmm0, (%r15,%rbp,8)
	mulsd	%xmm0, %xmm0
	addsd	(%rsp), %xmm0
	movsd	%xmm0, (%rsp)
.L688:
	addl	$1, %ebx
	cmpl	%r12d, %ebx
	jnb	.L696
.L689:
	leal	0(%r13,%rbx), %ebp
	movsd	(%r14,%rbp,8), %xmm0
	pxor	%xmm4, %xmm4
	ucomisd	%xmm4, %xmm0
	jp	.L693
	jne	.L693
	movq	$0x000000000, (%r15,%rbp,8)
	jmp	.L688
.L696:
	movl	64(%rsp), %edx
	addl	$1, %edx
	addl	%r12d, %r13d
	cmpl	%r12d, %edx
	jnb	.L690
.L692:
	movl	$0, %ebx
	movl	%edx, 64(%rsp)
	jmp	.L689
.L690:
	movl	68(%rsp), %ecx
	movl	72(%rsp), %eax
	addl	$1, %eax
	movl	76(%rsp), %esi
	addl	%esi, %ecx
	cmpl	%r12d, %eax
	jnb	.L691
.L685:
	movl	%ecx, %r13d
	movl	$0, %edx
	movl	%ecx, 68(%rsp)
	movl	%eax, 72(%rsp)
	jmp	.L692
.L691:
	movsd	(%rsp), %xmm0
	sqrtsd	%xmm0, %xmm0
	addq	$88, %rsp
	.cfi_def_cfa_offset 56
	popq	%rbx
	.cfi_def_cfa_offset 48
	popq	%rbp
	.cfi_def_cfa_offset 40
	popq	%r12
	.cfi_def_cfa_offset 32
	popq	%r13
	.cfi_def_cfa_offset 24
	popq	%r14
	.cfi_def_cfa_offset 16
	popq	%r15
	.cfi_def_cfa_offset 8
	ret
	.cfi_endproc
.LFE11044:
	.size	_ZN22basis_set_calculationsIdE24Wavefunction_7s_generateEPdS1_jdj, .-_ZN22basis_set_calculationsIdE24Wavefunction_7s_generateEPdS1_jdj
	.section	.text._ZN22basis_set_calculationsIdE25Wavefunction_2px_generateEPdS1_jdj,"axG",@progbits,_ZN22basis_set_calculationsIdE25Wavefunction_2px_generateEPdS1_jdj,comdat
	.align 2
	.weak	_ZN22basis_set_calculationsIdE25Wavefunction_2px_generateEPdS1_jdj
	.type	_ZN22basis_set_calculationsIdE25Wavefunction_2px_generateEPdS1_jdj, @function
_ZN22basis_set_calculationsIdE25Wavefunction_2px_generateEPdS1_jdj:
.LFB11045:
	.cfi_startproc
	endbr64
	pushq	%r15
	.cfi_def_cfa_offset 16
	.cfi_offset 15, -16
	pushq	%r14
	.cfi_def_cfa_offset 24
	.cfi_offset 14, -24
	pushq	%r13
	.cfi_def_cfa_offset 32
	.cfi_offset 13, -32
	pushq	%r12
	.cfi_def_cfa_offset 40
	.cfi_offset 12, -40
	pushq	%rbp
	.cfi_def_cfa_offset 48
	.cfi_offset 6, -48
	pushq	%rbx
	.cfi_def_cfa_offset 56
	.cfi_offset 3, -56
	subq	$72, %rsp
	.cfi_def_cfa_offset 128
	movq	%rsi, 16(%rsp)
	movq	%rdx, %rbp
	movapd	%xmm0, %xmm3
	movl	%r8d, %r15d
	movsd	80(%rdi), %xmm0
	addsd	%xmm0, %xmm0
	sqrtsd	%xmm0, %xmm0
	movl	%ecx, %ecx
	pxor	%xmm2, %xmm2
	cvtsi2sdq	%rcx, %xmm2
	movapd	%xmm2, %xmm4
	sqrtsd	%xmm4, %xmm4
	movsd	.LC11(%rip), %xmm1
	divsd	%xmm0, %xmm1
	movapd	%xmm2, %xmm0
	mulsd	%xmm2, %xmm0
	mulsd	%xmm0, %xmm1
	divsd	%xmm4, %xmm1
	movsd	%xmm1, 32(%rsp)
	mulsd	%xmm3, %xmm2
	movsd	%xmm2, 40(%rsp)
	leal	1(%r8,%r8), %r13d
	movl	%r13d, %eax
	imull	%r13d, %eax
	movl	%eax, 60(%rsp)
	movl	%r8d, 56(%rsp)
	movq	$0x000000000, 8(%rsp)
	movl	$0, 52(%rsp)
	jmp	.L700
.L708:
	movsd	40(%rsp), %xmm6
	mulsd	(%rsp), %xmm6
	movsd	%xmm6, 24(%rsp)
	movapd	%xmm6, %xmm0
	mulsd	.LC7(%rip), %xmm0
	call	exp@PLT
	movapd	%xmm0, %xmm1
	pxor	%xmm0, %xmm0
	cvtsi2sdl	%ebx, %xmm0
	mulsd	32(%rsp), %xmm0
	mulsd	24(%rsp), %xmm1
	mulsd	%xmm1, %xmm0
	divsd	(%rsp), %xmm0
	movq	16(%rsp), %rax
	movsd	%xmm0, (%rax,%r12,8)
	mulsd	%xmm0, %xmm0
	addsd	8(%rsp), %xmm0
	movsd	%xmm0, 8(%rsp)
.L703:
	addl	$1, %ebx
	leal	(%r15,%rbx), %eax
	cmpl	%r13d, %eax
	jnb	.L711
.L704:
	leal	(%r14,%rbx), %r12d
	movsd	0(%rbp,%r12,8), %xmm5
	movsd	%xmm5, (%rsp)
	pxor	%xmm7, %xmm7
	ucomisd	%xmm7, %xmm5
	jp	.L708
	jne	.L708
	movq	16(%rsp), %rax
	movq	$0x000000000, (%rax,%r12,8)
	jmp	.L703
.L711:
	addl	$1, 48(%rsp)
	movl	48(%rsp), %eax
	addl	%r13d, %r14d
	cmpl	%r13d, %eax
	jnb	.L705
.L707:
	movl	%r15d, %ebx
	negl	%ebx
	jmp	.L704
.L705:
	addl	$1, 52(%rsp)
	movl	52(%rsp), %eax
	movl	60(%rsp), %esi
	addl	%esi, 56(%rsp)
	cmpl	%r13d, %eax
	jnb	.L706
.L700:
	movl	56(%rsp), %r14d
	movl	$0, 48(%rsp)
	jmp	.L707
.L706:
	movsd	8(%rsp), %xmm0
	sqrtsd	%xmm0, %xmm0
	addq	$72, %rsp
	.cfi_def_cfa_offset 56
	popq	%rbx
	.cfi_def_cfa_offset 48
	popq	%rbp
	.cfi_def_cfa_offset 40
	popq	%r12
	.cfi_def_cfa_offset 32
	popq	%r13
	.cfi_def_cfa_offset 24
	popq	%r14
	.cfi_def_cfa_offset 16
	popq	%r15
	.cfi_def_cfa_offset 8
	ret
	.cfi_endproc
.LFE11045:
	.size	_ZN22basis_set_calculationsIdE25Wavefunction_2px_generateEPdS1_jdj, .-_ZN22basis_set_calculationsIdE25Wavefunction_2px_generateEPdS1_jdj
	.section	.text._ZN22basis_set_calculationsIdE25Wavefunction_2pz_generateEPdS1_jdj,"axG",@progbits,_ZN22basis_set_calculationsIdE25Wavefunction_2pz_generateEPdS1_jdj,comdat
	.align 2
	.weak	_ZN22basis_set_calculationsIdE25Wavefunction_2pz_generateEPdS1_jdj
	.type	_ZN22basis_set_calculationsIdE25Wavefunction_2pz_generateEPdS1_jdj, @function
_ZN22basis_set_calculationsIdE25Wavefunction_2pz_generateEPdS1_jdj:
.LFB11046:
	.cfi_startproc
	endbr64
	pushq	%r15
	.cfi_def_cfa_offset 16
	.cfi_offset 15, -16
	pushq	%r14
	.cfi_def_cfa_offset 24
	.cfi_offset 14, -24
	pushq	%r13
	.cfi_def_cfa_offset 32
	.cfi_offset 13, -32
	pushq	%r12
	.cfi_def_cfa_offset 40
	.cfi_offset 12, -40
	pushq	%rbp
	.cfi_def_cfa_offset 48
	.cfi_offset 6, -48
	pushq	%rbx
	.cfi_def_cfa_offset 56
	.cfi_offset 3, -56
	subq	$88, %rsp
	.cfi_def_cfa_offset 144
	movq	%rsi, %r15
	movq	%rdx, %rbp
	movapd	%xmm0, %xmm3
	movl	%r8d, 76(%rsp)
	movsd	80(%rdi), %xmm0
	addsd	%xmm0, %xmm0
	sqrtsd	%xmm0, %xmm0
	movl	%ecx, %ecx
	pxor	%xmm2, %xmm2
	cvtsi2sdq	%rcx, %xmm2
	movapd	%xmm2, %xmm4
	sqrtsd	%xmm4, %xmm4
	movsd	.LC11(%rip), %xmm1
	divsd	%xmm0, %xmm1
	movapd	%xmm2, %xmm0
	mulsd	%xmm2, %xmm0
	mulsd	%xmm0, %xmm1
	divsd	%xmm4, %xmm1
	movsd	%xmm1, 64(%rsp)
	mulsd	%xmm3, %xmm2
	movsd	%xmm2, 40(%rsp)
	leal	1(%r8,%r8), %r13d
	negl	%r8d
	movl	%r8d, 56(%rsp)
	movl	%r13d, %eax
	imull	%r13d, %eax
	movl	%eax, 72(%rsp)
	movl	$0, 60(%rsp)
	movq	$0x000000000, 16(%rsp)
	jmp	.L721
.L722:
	movsd	40(%rsp), %xmm6
	mulsd	8(%rsp), %xmm6
	movsd	%xmm6, 24(%rsp)
	movapd	%xmm6, %xmm0
	mulsd	.LC7(%rip), %xmm0
	call	exp@PLT
	movapd	%xmm0, %xmm1
	movsd	24(%rsp), %xmm0
	mulsd	32(%rsp), %xmm0
	mulsd	%xmm1, %xmm0
	divsd	8(%rsp), %xmm0
	movsd	%xmm0, (%r15,%r12,8)
	mulsd	%xmm0, %xmm0
	addsd	16(%rsp), %xmm0
	movsd	%xmm0, 16(%rsp)
.L718:
	addl	$1, %ebx
	cmpl	%r13d, %ebx
	jnb	.L726
.L719:
	leal	(%rbx,%r14), %r12d
	movsd	0(%rbp,%r12,8), %xmm5
	movsd	%xmm5, 8(%rsp)
	pxor	%xmm7, %xmm7
	ucomisd	%xmm7, %xmm5
	jp	.L722
	jne	.L722
	movq	$0x000000000, (%r15,%r12,8)
	jmp	.L718
.L726:
	addl	$1, 52(%rsp)
	movl	52(%rsp), %eax
	addl	%r13d, %r14d
	cmpl	%r13d, %eax
	jnb	.L720
.L715:
	movl	$0, %ebx
	jmp	.L719
.L720:
	addl	$1, 56(%rsp)
	movl	56(%rsp), %eax
	movl	72(%rsp), %esi
	addl	%esi, 60(%rsp)
	movl	76(%rsp), %edi
	addl	%edi, %eax
	cmpl	%r13d, %eax
	jnb	.L727
.L721:
	pxor	%xmm0, %xmm0
	cvtsi2sdl	56(%rsp), %xmm0
	mulsd	64(%rsp), %xmm0
	movsd	%xmm0, 32(%rsp)
	movl	60(%rsp), %r14d
	movl	$0, 52(%rsp)
	jmp	.L715
.L727:
	movsd	16(%rsp), %xmm0
	sqrtsd	%xmm0, %xmm0
	addq	$88, %rsp
	.cfi_def_cfa_offset 56
	popq	%rbx
	.cfi_def_cfa_offset 48
	popq	%rbp
	.cfi_def_cfa_offset 40
	popq	%r12
	.cfi_def_cfa_offset 32
	popq	%r13
	.cfi_def_cfa_offset 24
	popq	%r14
	.cfi_def_cfa_offset 16
	popq	%r15
	.cfi_def_cfa_offset 8
	ret
	.cfi_endproc
.LFE11046:
	.size	_ZN22basis_set_calculationsIdE25Wavefunction_2pz_generateEPdS1_jdj, .-_ZN22basis_set_calculationsIdE25Wavefunction_2pz_generateEPdS1_jdj
	.section	.text._ZN22basis_set_calculationsIdE25Wavefunction_2py_generateEPdS1_jdj,"axG",@progbits,_ZN22basis_set_calculationsIdE25Wavefunction_2py_generateEPdS1_jdj,comdat
	.align 2
	.weak	_ZN22basis_set_calculationsIdE25Wavefunction_2py_generateEPdS1_jdj
	.type	_ZN22basis_set_calculationsIdE25Wavefunction_2py_generateEPdS1_jdj, @function
_ZN22basis_set_calculationsIdE25Wavefunction_2py_generateEPdS1_jdj:
.LFB11047:
	.cfi_startproc
	endbr64
	pushq	%r15
	.cfi_def_cfa_offset 16
	.cfi_offset 15, -16
	pushq	%r14
	.cfi_def_cfa_offset 24
	.cfi_offset 14, -24
	pushq	%r13
	.cfi_def_cfa_offset 32
	.cfi_offset 13, -32
	pushq	%r12
	.cfi_def_cfa_offset 40
	.cfi_offset 12, -40
	pushq	%rbp
	.cfi_def_cfa_offset 48
	.cfi_offset 6, -48
	pushq	%rbx
	.cfi_def_cfa_offset 56
	.cfi_offset 3, -56
	subq	$88, %rsp
	.cfi_def_cfa_offset 144
	movq	%rsi, %r15
	movq	%rdx, %rbp
	movapd	%xmm0, %xmm3
	movl	%r8d, 64(%rsp)
	movsd	80(%rdi), %xmm0
	addsd	%xmm0, %xmm0
	sqrtsd	%xmm0, %xmm0
	movl	%ecx, %ecx
	pxor	%xmm2, %xmm2
	cvtsi2sdq	%rcx, %xmm2
	movapd	%xmm2, %xmm4
	sqrtsd	%xmm4, %xmm4
	movsd	.LC11(%rip), %xmm1
	divsd	%xmm0, %xmm1
	movapd	%xmm2, %xmm0
	mulsd	%xmm2, %xmm0
	mulsd	%xmm0, %xmm1
	divsd	%xmm4, %xmm1
	movsd	%xmm1, 56(%rsp)
	mulsd	%xmm3, %xmm2
	movsd	%xmm2, 48(%rsp)
	leal	1(%r8,%r8), %r13d
	movl	%r13d, %eax
	imull	%r13d, %eax
	movl	%eax, 76(%rsp)
	movl	$0, 72(%rsp)
	movq	$0x000000000, 16(%rsp)
	movl	$0, 68(%rsp)
	jmp	.L731
.L738:
	movsd	48(%rsp), %xmm6
	mulsd	8(%rsp), %xmm6
	movsd	%xmm6, 24(%rsp)
	movapd	%xmm6, %xmm0
	mulsd	.LC7(%rip), %xmm0
	call	exp@PLT
	movapd	%xmm0, %xmm1
	movsd	24(%rsp), %xmm0
	mulsd	32(%rsp), %xmm0
	mulsd	%xmm1, %xmm0
	divsd	8(%rsp), %xmm0
	movsd	%xmm0, (%r15,%r12,8)
	mulsd	%xmm0, %xmm0
	addsd	16(%rsp), %xmm0
	movsd	%xmm0, 16(%rsp)
.L734:
	addl	$1, %ebx
	cmpl	%r13d, %ebx
	jnb	.L742
.L735:
	leal	(%r14,%rbx), %r12d
	movsd	0(%rbp,%r12,8), %xmm5
	movsd	%xmm5, 8(%rsp)
	pxor	%xmm7, %xmm7
	ucomisd	%xmm7, %xmm5
	jp	.L738
	jne	.L738
	movq	$0x000000000, (%r15,%r12,8)
	jmp	.L734
.L742:
	addl	$1, 44(%rsp)
	movl	44(%rsp), %eax
	addl	%r13d, %r14d
	movl	64(%rsp), %edx
	addl	%edx, %eax
	cmpl	%r13d, %eax
	jnb	.L743
.L736:
	pxor	%xmm0, %xmm0
	cvtsi2sdl	44(%rsp), %xmm0
	mulsd	56(%rsp), %xmm0
	movsd	%xmm0, 32(%rsp)
	movl	$0, %ebx
	jmp	.L735
.L743:
	addl	$1, 68(%rsp)
	movl	68(%rsp), %eax
	movl	76(%rsp), %edi
	addl	%edi, 72(%rsp)
	cmpl	%r13d, %eax
	jnb	.L737
.L731:
	movl	64(%rsp), %eax
	negl	%eax
	movl	%eax, 44(%rsp)
	movl	72(%rsp), %r14d
	jmp	.L736
.L737:
	movsd	16(%rsp), %xmm0
	sqrtsd	%xmm0, %xmm0
	addq	$88, %rsp
	.cfi_def_cfa_offset 56
	popq	%rbx
	.cfi_def_cfa_offset 48
	popq	%rbp
	.cfi_def_cfa_offset 40
	popq	%r12
	.cfi_def_cfa_offset 32
	popq	%r13
	.cfi_def_cfa_offset 24
	popq	%r14
	.cfi_def_cfa_offset 16
	popq	%r15
	.cfi_def_cfa_offset 8
	ret
	.cfi_endproc
.LFE11047:
	.size	_ZN22basis_set_calculationsIdE25Wavefunction_2py_generateEPdS1_jdj, .-_ZN22basis_set_calculationsIdE25Wavefunction_2py_generateEPdS1_jdj
	.section	.text._ZN22basis_set_calculationsIdE25Wavefunction_3px_generateEPdS1_jdj,"axG",@progbits,_ZN22basis_set_calculationsIdE25Wavefunction_3px_generateEPdS1_jdj,comdat
	.align 2
	.weak	_ZN22basis_set_calculationsIdE25Wavefunction_3px_generateEPdS1_jdj
	.type	_ZN22basis_set_calculationsIdE25Wavefunction_3px_generateEPdS1_jdj, @function
_ZN22basis_set_calculationsIdE25Wavefunction_3px_generateEPdS1_jdj:
.LFB11048:
	.cfi_startproc
	endbr64
	pushq	%r15
	.cfi_def_cfa_offset 16
	.cfi_offset 15, -16
	pushq	%r14
	.cfi_def_cfa_offset 24
	.cfi_offset 14, -24
	pushq	%r13
	.cfi_def_cfa_offset 32
	.cfi_offset 13, -32
	pushq	%r12
	.cfi_def_cfa_offset 40
	.cfi_offset 12, -40
	pushq	%rbp
	.cfi_def_cfa_offset 48
	.cfi_offset 6, -48
	pushq	%rbx
	.cfi_def_cfa_offset 56
	.cfi_offset 3, -56
	subq	$72, %rsp
	.cfi_def_cfa_offset 128
	movq	%rsi, 16(%rsp)
	movq	%rdx, %rbp
	movl	%ecx, %eax
	movapd	%xmm0, %xmm3
	movl	%r8d, %r15d
	movsd	.LC11(%rip), %xmm2
	mulsd	80(%rdi), %xmm2
	sqrtsd	%xmm2, %xmm2
	movl	%ecx, %edx
	pxor	%xmm1, %xmm1
	cvtsi2sdq	%rdx, %xmm1
	movapd	%xmm1, %xmm4
	sqrtsd	%xmm4, %xmm4
	movsd	.LC21(%rip), %xmm0
	divsd	%xmm2, %xmm0
	mulsd	%xmm1, %xmm1
	mulsd	%xmm1, %xmm0
	divsd	%xmm4, %xmm0
	movsd	%xmm0, 32(%rsp)
	leal	(%rax,%rax), %eax
	movl	$2863311531, %edx
	imulq	%rdx, %rax
	shrq	$33, %rax
	pxor	%xmm0, %xmm0
	cvtsi2sdq	%rax, %xmm0
	mulsd	%xmm3, %xmm0
	movsd	%xmm0, 40(%rsp)
	leal	1(%r8,%r8), %r13d
	movl	%r13d, %eax
	imull	%r13d, %eax
	movl	%eax, 60(%rsp)
	movl	%r8d, 56(%rsp)
	movq	$0x000000000, 8(%rsp)
	movl	$0, 52(%rsp)
	jmp	.L749
.L757:
	movsd	40(%rsp), %xmm6
	mulsd	(%rsp), %xmm6
	movsd	%xmm6, 24(%rsp)
	movapd	%xmm6, %xmm0
	mulsd	.LC7(%rip), %xmm0
	call	exp@PLT
	movapd	%xmm0, %xmm2
	movsd	.LC46(%rip), %xmm1
	movsd	24(%rsp), %xmm6
	subsd	%xmm6, %xmm1
	mulsd	%xmm6, %xmm1
	pxor	%xmm0, %xmm0
	cvtsi2sdl	%ebx, %xmm0
	mulsd	32(%rsp), %xmm0
	mulsd	%xmm1, %xmm0
	mulsd	%xmm2, %xmm0
	divsd	(%rsp), %xmm0
	movq	16(%rsp), %rax
	movsd	%xmm0, (%rax,%r12,8)
	mulsd	%xmm0, %xmm0
	addsd	8(%rsp), %xmm0
	movsd	%xmm0, 8(%rsp)
.L752:
	addl	$1, %ebx
	leal	(%r15,%rbx), %eax
	cmpl	%r13d, %eax
	jnb	.L760
.L753:
	leal	(%r14,%rbx), %r12d
	movsd	0(%rbp,%r12,8), %xmm5
	movsd	%xmm5, (%rsp)
	pxor	%xmm7, %xmm7
	ucomisd	%xmm7, %xmm5
	jp	.L757
	jne	.L757
	movq	16(%rsp), %rax
	movq	$0x000000000, (%rax,%r12,8)
	jmp	.L752
.L760:
	addl	$1, 48(%rsp)
	movl	48(%rsp), %eax
	addl	%r13d, %r14d
	cmpl	%r13d, %eax
	jnb	.L754
.L756:
	movl	%r15d, %ebx
	negl	%ebx
	jmp	.L753
.L754:
	addl	$1, 52(%rsp)
	movl	52(%rsp), %eax
	movl	60(%rsp), %esi
	addl	%esi, 56(%rsp)
	cmpl	%r13d, %eax
	jnb	.L755
.L749:
	movl	56(%rsp), %r14d
	movl	$0, 48(%rsp)
	jmp	.L756
.L755:
	movsd	8(%rsp), %xmm0
	sqrtsd	%xmm0, %xmm0
	addq	$72, %rsp
	.cfi_def_cfa_offset 56
	popq	%rbx
	.cfi_def_cfa_offset 48
	popq	%rbp
	.cfi_def_cfa_offset 40
	popq	%r12
	.cfi_def_cfa_offset 32
	popq	%r13
	.cfi_def_cfa_offset 24
	popq	%r14
	.cfi_def_cfa_offset 16
	popq	%r15
	.cfi_def_cfa_offset 8
	ret
	.cfi_endproc
.LFE11048:
	.size	_ZN22basis_set_calculationsIdE25Wavefunction_3px_generateEPdS1_jdj, .-_ZN22basis_set_calculationsIdE25Wavefunction_3px_generateEPdS1_jdj
	.section	.text._ZN22basis_set_calculationsIdE25Wavefunction_3pz_generateEPdS1_jdj,"axG",@progbits,_ZN22basis_set_calculationsIdE25Wavefunction_3pz_generateEPdS1_jdj,comdat
	.align 2
	.weak	_ZN22basis_set_calculationsIdE25Wavefunction_3pz_generateEPdS1_jdj
	.type	_ZN22basis_set_calculationsIdE25Wavefunction_3pz_generateEPdS1_jdj, @function
_ZN22basis_set_calculationsIdE25Wavefunction_3pz_generateEPdS1_jdj:
.LFB11049:
	.cfi_startproc
	endbr64
	pushq	%r15
	.cfi_def_cfa_offset 16
	.cfi_offset 15, -16
	pushq	%r14
	.cfi_def_cfa_offset 24
	.cfi_offset 14, -24
	pushq	%r13
	.cfi_def_cfa_offset 32
	.cfi_offset 13, -32
	pushq	%r12
	.cfi_def_cfa_offset 40
	.cfi_offset 12, -40
	pushq	%rbp
	.cfi_def_cfa_offset 48
	.cfi_offset 6, -48
	pushq	%rbx
	.cfi_def_cfa_offset 56
	.cfi_offset 3, -56
	subq	$88, %rsp
	.cfi_def_cfa_offset 144
	movq	%rsi, %r15
	movq	%rdx, %rbp
	movl	%ecx, %eax
	movapd	%xmm0, %xmm3
	movl	%r8d, 76(%rsp)
	movsd	.LC11(%rip), %xmm2
	mulsd	80(%rdi), %xmm2
	sqrtsd	%xmm2, %xmm2
	movl	%ecx, %edx
	pxor	%xmm1, %xmm1
	cvtsi2sdq	%rdx, %xmm1
	movapd	%xmm1, %xmm4
	sqrtsd	%xmm4, %xmm4
	movsd	.LC21(%rip), %xmm0
	divsd	%xmm2, %xmm0
	mulsd	%xmm1, %xmm1
	mulsd	%xmm1, %xmm0
	divsd	%xmm4, %xmm0
	movsd	%xmm0, 64(%rsp)
	leal	(%rax,%rax), %eax
	movl	$2863311531, %edx
	imulq	%rdx, %rax
	shrq	$33, %rax
	pxor	%xmm0, %xmm0
	cvtsi2sdq	%rax, %xmm0
	mulsd	%xmm3, %xmm0
	movsd	%xmm0, 40(%rsp)
	leal	1(%r8,%r8), %r13d
	negl	%r8d
	movl	%r8d, 56(%rsp)
	movl	%r13d, %eax
	imull	%r13d, %eax
	movl	%eax, 72(%rsp)
	movl	$0, 60(%rsp)
	movq	$0x000000000, 16(%rsp)
	jmp	.L772
.L773:
	movsd	40(%rsp), %xmm6
	mulsd	8(%rsp), %xmm6
	movsd	%xmm6, 24(%rsp)
	movapd	%xmm6, %xmm0
	mulsd	.LC7(%rip), %xmm0
	call	exp@PLT
	movapd	%xmm0, %xmm1
	movsd	.LC46(%rip), %xmm2
	movsd	24(%rsp), %xmm6
	subsd	%xmm6, %xmm2
	movapd	%xmm2, %xmm0
	mulsd	%xmm1, %xmm0
	movapd	%xmm6, %xmm1
	mulsd	32(%rsp), %xmm1
	mulsd	%xmm1, %xmm0
	divsd	8(%rsp), %xmm0
	movsd	%xmm0, (%r15,%r12,8)
	mulsd	%xmm0, %xmm0
	addsd	16(%rsp), %xmm0
	movsd	%xmm0, 16(%rsp)
.L769:
	addl	$1, %ebx
	cmpl	%r13d, %ebx
	jnb	.L777
.L770:
	leal	(%r14,%rbx), %r12d
	movsd	0(%rbp,%r12,8), %xmm5
	movsd	%xmm5, 8(%rsp)
	pxor	%xmm7, %xmm7
	ucomisd	%xmm7, %xmm5
	jp	.L773
	jne	.L773
	movq	$0x000000000, (%r15,%r12,8)
	jmp	.L769
.L777:
	addl	$1, 52(%rsp)
	movl	52(%rsp), %eax
	addl	%r13d, %r14d
	cmpl	%r13d, %eax
	jnb	.L771
.L766:
	movl	$0, %ebx
	jmp	.L770
.L771:
	addl	$1, 56(%rsp)
	movl	56(%rsp), %eax
	movl	72(%rsp), %esi
	addl	%esi, 60(%rsp)
	movl	76(%rsp), %edi
	addl	%edi, %eax
	cmpl	%r13d, %eax
	jnb	.L778
.L772:
	pxor	%xmm0, %xmm0
	cvtsi2sdl	56(%rsp), %xmm0
	mulsd	64(%rsp), %xmm0
	movsd	%xmm0, 32(%rsp)
	movl	60(%rsp), %r14d
	movl	$0, 52(%rsp)
	jmp	.L766
.L778:
	movsd	16(%rsp), %xmm0
	sqrtsd	%xmm0, %xmm0
	addq	$88, %rsp
	.cfi_def_cfa_offset 56
	popq	%rbx
	.cfi_def_cfa_offset 48
	popq	%rbp
	.cfi_def_cfa_offset 40
	popq	%r12
	.cfi_def_cfa_offset 32
	popq	%r13
	.cfi_def_cfa_offset 24
	popq	%r14
	.cfi_def_cfa_offset 16
	popq	%r15
	.cfi_def_cfa_offset 8
	ret
	.cfi_endproc
.LFE11049:
	.size	_ZN22basis_set_calculationsIdE25Wavefunction_3pz_generateEPdS1_jdj, .-_ZN22basis_set_calculationsIdE25Wavefunction_3pz_generateEPdS1_jdj
	.section	.text._ZN22basis_set_calculationsIdE25Wavefunction_3py_generateEPdS1_jdj,"axG",@progbits,_ZN22basis_set_calculationsIdE25Wavefunction_3py_generateEPdS1_jdj,comdat
	.align 2
	.weak	_ZN22basis_set_calculationsIdE25Wavefunction_3py_generateEPdS1_jdj
	.type	_ZN22basis_set_calculationsIdE25Wavefunction_3py_generateEPdS1_jdj, @function
_ZN22basis_set_calculationsIdE25Wavefunction_3py_generateEPdS1_jdj:
.LFB11050:
	.cfi_startproc
	endbr64
	pushq	%r15
	.cfi_def_cfa_offset 16
	.cfi_offset 15, -16
	pushq	%r14
	.cfi_def_cfa_offset 24
	.cfi_offset 14, -24
	pushq	%r13
	.cfi_def_cfa_offset 32
	.cfi_offset 13, -32
	pushq	%r12
	.cfi_def_cfa_offset 40
	.cfi_offset 12, -40
	pushq	%rbp
	.cfi_def_cfa_offset 48
	.cfi_offset 6, -48
	pushq	%rbx
	.cfi_def_cfa_offset 56
	.cfi_offset 3, -56
	subq	$88, %rsp
	.cfi_def_cfa_offset 144
	movq	%rsi, %r15
	movq	%rdx, %rbp
	movl	%ecx, %eax
	movapd	%xmm0, %xmm3
	movl	%r8d, 64(%rsp)
	movsd	.LC11(%rip), %xmm2
	mulsd	80(%rdi), %xmm2
	sqrtsd	%xmm2, %xmm2
	movl	%ecx, %edx
	pxor	%xmm1, %xmm1
	cvtsi2sdq	%rdx, %xmm1
	movapd	%xmm1, %xmm4
	sqrtsd	%xmm4, %xmm4
	movsd	.LC21(%rip), %xmm0
	divsd	%xmm2, %xmm0
	mulsd	%xmm1, %xmm1
	mulsd	%xmm1, %xmm0
	divsd	%xmm4, %xmm0
	movsd	%xmm0, 56(%rsp)
	leal	(%rax,%rax), %eax
	movl	$2863311531, %edx
	imulq	%rdx, %rax
	shrq	$33, %rax
	pxor	%xmm0, %xmm0
	cvtsi2sdq	%rax, %xmm0
	mulsd	%xmm3, %xmm0
	movsd	%xmm0, 48(%rsp)
	leal	1(%r8,%r8), %r13d
	movl	%r13d, %eax
	imull	%r13d, %eax
	movl	%eax, 76(%rsp)
	movl	$0, 72(%rsp)
	movq	$0x000000000, 16(%rsp)
	movl	$0, 68(%rsp)
	jmp	.L784
.L791:
	movsd	48(%rsp), %xmm6
	mulsd	8(%rsp), %xmm6
	movsd	%xmm6, 24(%rsp)
	movapd	%xmm6, %xmm0
	mulsd	.LC7(%rip), %xmm0
	call	exp@PLT
	movapd	%xmm0, %xmm1
	movsd	.LC46(%rip), %xmm2
	movsd	24(%rsp), %xmm6
	subsd	%xmm6, %xmm2
	movapd	%xmm2, %xmm0
	mulsd	%xmm1, %xmm0
	movapd	%xmm6, %xmm1
	mulsd	32(%rsp), %xmm1
	mulsd	%xmm1, %xmm0
	divsd	8(%rsp), %xmm0
	movsd	%xmm0, (%r15,%r12,8)
	mulsd	%xmm0, %xmm0
	addsd	16(%rsp), %xmm0
	movsd	%xmm0, 16(%rsp)
.L787:
	addl	$1, %ebx
	cmpl	%r13d, %ebx
	jnb	.L795
.L788:
	leal	(%r14,%rbx), %r12d
	movsd	0(%rbp,%r12,8), %xmm5
	movsd	%xmm5, 8(%rsp)
	pxor	%xmm7, %xmm7
	ucomisd	%xmm7, %xmm5
	jp	.L791
	jne	.L791
	movq	$0x000000000, (%r15,%r12,8)
	jmp	.L787
.L795:
	addl	$1, 44(%rsp)
	movl	44(%rsp), %eax
	addl	%r13d, %r14d
	movl	64(%rsp), %ecx
	addl	%ecx, %eax
	cmpl	%r13d, %eax
	jnb	.L796
.L789:
	pxor	%xmm0, %xmm0
	cvtsi2sdl	44(%rsp), %xmm0
	mulsd	56(%rsp), %xmm0
	movsd	%xmm0, 32(%rsp)
	movl	$0, %ebx
	jmp	.L788
.L796:
	addl	$1, 68(%rsp)
	movl	68(%rsp), %eax
	movl	76(%rsp), %edi
	addl	%edi, 72(%rsp)
	cmpl	%r13d, %eax
	jnb	.L790
.L784:
	movl	64(%rsp), %eax
	negl	%eax
	movl	%eax, 44(%rsp)
	movl	72(%rsp), %r14d
	jmp	.L789
.L790:
	movsd	16(%rsp), %xmm0
	sqrtsd	%xmm0, %xmm0
	addq	$88, %rsp
	.cfi_def_cfa_offset 56
	popq	%rbx
	.cfi_def_cfa_offset 48
	popq	%rbp
	.cfi_def_cfa_offset 40
	popq	%r12
	.cfi_def_cfa_offset 32
	popq	%r13
	.cfi_def_cfa_offset 24
	popq	%r14
	.cfi_def_cfa_offset 16
	popq	%r15
	.cfi_def_cfa_offset 8
	ret
	.cfi_endproc
.LFE11050:
	.size	_ZN22basis_set_calculationsIdE25Wavefunction_3py_generateEPdS1_jdj, .-_ZN22basis_set_calculationsIdE25Wavefunction_3py_generateEPdS1_jdj
	.section	.text._ZN22basis_set_calculationsIdE25Wavefunction_4px_generateEPdS1_jdj,"axG",@progbits,_ZN22basis_set_calculationsIdE25Wavefunction_4px_generateEPdS1_jdj,comdat
	.align 2
	.weak	_ZN22basis_set_calculationsIdE25Wavefunction_4px_generateEPdS1_jdj
	.type	_ZN22basis_set_calculationsIdE25Wavefunction_4px_generateEPdS1_jdj, @function
_ZN22basis_set_calculationsIdE25Wavefunction_4px_generateEPdS1_jdj:
.LFB11051:
	.cfi_startproc
	endbr64
	pushq	%r15
	.cfi_def_cfa_offset 16
	.cfi_offset 15, -16
	pushq	%r14
	.cfi_def_cfa_offset 24
	.cfi_offset 14, -24
	pushq	%r13
	.cfi_def_cfa_offset 32
	.cfi_offset 13, -32
	pushq	%r12
	.cfi_def_cfa_offset 40
	.cfi_offset 12, -40
	pushq	%rbp
	.cfi_def_cfa_offset 48
	.cfi_offset 6, -48
	pushq	%rbx
	.cfi_def_cfa_offset 56
	.cfi_offset 3, -56
	subq	$72, %rsp
	.cfi_def_cfa_offset 128
	movq	%rsi, 16(%rsp)
	movq	%rdx, %rbp
	movl	%ecx, %eax
	movapd	%xmm0, %xmm3
	movl	%r8d, %r15d
	movsd	.LC27(%rip), %xmm2
	mulsd	80(%rdi), %xmm2
	sqrtsd	%xmm2, %xmm2
	movl	%ecx, %edx
	pxor	%xmm1, %xmm1
	cvtsi2sdq	%rdx, %xmm1
	movapd	%xmm1, %xmm4
	sqrtsd	%xmm4, %xmm4
	movsd	.LC47(%rip), %xmm0
	divsd	%xmm2, %xmm0
	mulsd	%xmm1, %xmm1
	mulsd	%xmm1, %xmm0
	divsd	%xmm4, %xmm0
	movsd	%xmm0, 32(%rsp)
	shrl	%eax
	movl	%eax, %eax
	pxor	%xmm0, %xmm0
	cvtsi2sdq	%rax, %xmm0
	mulsd	%xmm3, %xmm0
	movsd	%xmm0, 40(%rsp)
	leal	1(%r8,%r8), %r13d
	movl	%r13d, %eax
	imull	%r13d, %eax
	movl	%eax, 60(%rsp)
	movl	%r8d, 56(%rsp)
	movq	$0x000000000, 8(%rsp)
	movl	$0, 52(%rsp)
	jmp	.L802
.L810:
	movsd	40(%rsp), %xmm5
	mulsd	(%rsp), %xmm5
	movsd	%xmm5, 24(%rsp)
	movapd	%xmm5, %xmm0
	mulsd	.LC7(%rip), %xmm0
	call	exp@PLT
	movapd	%xmm0, %xmm2
	movsd	24(%rsp), %xmm5
	movapd	%xmm5, %xmm1
	subsd	.LC48(%rip), %xmm1
	mulsd	%xmm5, %xmm1
	addsd	.LC31(%rip), %xmm1
	mulsd	%xmm5, %xmm1
	pxor	%xmm0, %xmm0
	cvtsi2sdl	%ebx, %xmm0
	mulsd	32(%rsp), %xmm0
	mulsd	%xmm1, %xmm0
	mulsd	%xmm2, %xmm0
	divsd	(%rsp), %xmm0
	movq	16(%rsp), %rax
	movsd	%xmm0, (%rax,%r12,8)
	mulsd	%xmm0, %xmm0
	addsd	8(%rsp), %xmm0
	movsd	%xmm0, 8(%rsp)
.L805:
	addl	$1, %ebx
	leal	(%r15,%rbx), %eax
	cmpl	%r13d, %eax
	jnb	.L813
.L806:
	leal	(%r14,%rbx), %r12d
	movsd	0(%rbp,%r12,8), %xmm6
	movsd	%xmm6, (%rsp)
	pxor	%xmm7, %xmm7
	ucomisd	%xmm7, %xmm6
	jp	.L810
	jne	.L810
	movq	16(%rsp), %rax
	movq	$0x000000000, (%rax,%r12,8)
	jmp	.L805
.L813:
	addl	$1, 48(%rsp)
	movl	48(%rsp), %eax
	addl	%r13d, %r14d
	cmpl	%r13d, %eax
	jnb	.L807
.L809:
	movl	%r15d, %ebx
	negl	%ebx
	jmp	.L806
.L807:
	addl	$1, 52(%rsp)
	movl	52(%rsp), %eax
	movl	60(%rsp), %esi
	addl	%esi, 56(%rsp)
	cmpl	%r13d, %eax
	jnb	.L808
.L802:
	movl	56(%rsp), %r14d
	movl	$0, 48(%rsp)
	jmp	.L809
.L808:
	movsd	8(%rsp), %xmm0
	sqrtsd	%xmm0, %xmm0
	addq	$72, %rsp
	.cfi_def_cfa_offset 56
	popq	%rbx
	.cfi_def_cfa_offset 48
	popq	%rbp
	.cfi_def_cfa_offset 40
	popq	%r12
	.cfi_def_cfa_offset 32
	popq	%r13
	.cfi_def_cfa_offset 24
	popq	%r14
	.cfi_def_cfa_offset 16
	popq	%r15
	.cfi_def_cfa_offset 8
	ret
	.cfi_endproc
.LFE11051:
	.size	_ZN22basis_set_calculationsIdE25Wavefunction_4px_generateEPdS1_jdj, .-_ZN22basis_set_calculationsIdE25Wavefunction_4px_generateEPdS1_jdj
	.section	.text._ZN22basis_set_calculationsIdE25Wavefunction_4pz_generateEPdS1_jdj,"axG",@progbits,_ZN22basis_set_calculationsIdE25Wavefunction_4pz_generateEPdS1_jdj,comdat
	.align 2
	.weak	_ZN22basis_set_calculationsIdE25Wavefunction_4pz_generateEPdS1_jdj
	.type	_ZN22basis_set_calculationsIdE25Wavefunction_4pz_generateEPdS1_jdj, @function
_ZN22basis_set_calculationsIdE25Wavefunction_4pz_generateEPdS1_jdj:
.LFB11052:
	.cfi_startproc
	endbr64
	pushq	%r15
	.cfi_def_cfa_offset 16
	.cfi_offset 15, -16
	pushq	%r14
	.cfi_def_cfa_offset 24
	.cfi_offset 14, -24
	pushq	%r13
	.cfi_def_cfa_offset 32
	.cfi_offset 13, -32
	pushq	%r12
	.cfi_def_cfa_offset 40
	.cfi_offset 12, -40
	pushq	%rbp
	.cfi_def_cfa_offset 48
	.cfi_offset 6, -48
	pushq	%rbx
	.cfi_def_cfa_offset 56
	.cfi_offset 3, -56
	subq	$88, %rsp
	.cfi_def_cfa_offset 144
	movq	%rsi, %r15
	movq	%rdx, %rbp
	movl	%ecx, %eax
	movapd	%xmm0, %xmm3
	movl	%r8d, 76(%rsp)
	movsd	.LC27(%rip), %xmm2
	mulsd	80(%rdi), %xmm2
	sqrtsd	%xmm2, %xmm2
	movl	%ecx, %edx
	pxor	%xmm1, %xmm1
	cvtsi2sdq	%rdx, %xmm1
	movapd	%xmm1, %xmm4
	sqrtsd	%xmm4, %xmm4
	movsd	.LC47(%rip), %xmm0
	divsd	%xmm2, %xmm0
	mulsd	%xmm1, %xmm1
	mulsd	%xmm1, %xmm0
	divsd	%xmm4, %xmm0
	movsd	%xmm0, 64(%rsp)
	shrl	%eax
	movl	%eax, %eax
	pxor	%xmm0, %xmm0
	cvtsi2sdq	%rax, %xmm0
	mulsd	%xmm3, %xmm0
	movsd	%xmm0, 40(%rsp)
	leal	1(%r8,%r8), %r13d
	negl	%r8d
	movl	%r8d, 56(%rsp)
	movl	%r13d, %eax
	imull	%r13d, %eax
	movl	%eax, 72(%rsp)
	movl	$0, 60(%rsp)
	movq	$0x000000000, 16(%rsp)
	jmp	.L825
.L826:
	movsd	40(%rsp), %xmm5
	mulsd	8(%rsp), %xmm5
	movsd	%xmm5, 24(%rsp)
	movapd	%xmm5, %xmm0
	mulsd	.LC7(%rip), %xmm0
	call	exp@PLT
	movapd	%xmm0, %xmm1
	movsd	24(%rsp), %xmm5
	movapd	%xmm5, %xmm0
	subsd	.LC48(%rip), %xmm0
	mulsd	%xmm5, %xmm0
	addsd	.LC31(%rip), %xmm0
	mulsd	%xmm1, %xmm0
	movapd	%xmm5, %xmm1
	mulsd	32(%rsp), %xmm1
	mulsd	%xmm1, %xmm0
	divsd	8(%rsp), %xmm0
	movsd	%xmm0, (%r15,%r12,8)
	mulsd	%xmm0, %xmm0
	addsd	16(%rsp), %xmm0
	movsd	%xmm0, 16(%rsp)
.L822:
	addl	$1, %ebx
	cmpl	%r13d, %ebx
	jnb	.L830
.L823:
	leal	(%r14,%rbx), %r12d
	movsd	0(%rbp,%r12,8), %xmm6
	movsd	%xmm6, 8(%rsp)
	pxor	%xmm7, %xmm7
	ucomisd	%xmm7, %xmm6
	jp	.L826
	jne	.L826
	movq	$0x000000000, (%r15,%r12,8)
	jmp	.L822
.L830:
	addl	$1, 52(%rsp)
	movl	52(%rsp), %eax
	addl	%r13d, %r14d
	cmpl	%r13d, %eax
	jnb	.L824
.L819:
	movl	$0, %ebx
	jmp	.L823
.L824:
	addl	$1, 56(%rsp)
	movl	56(%rsp), %eax
	movl	72(%rsp), %esi
	addl	%esi, 60(%rsp)
	movl	76(%rsp), %edi
	addl	%edi, %eax
	cmpl	%r13d, %eax
	jnb	.L831
.L825:
	pxor	%xmm0, %xmm0
	cvtsi2sdl	56(%rsp), %xmm0
	mulsd	64(%rsp), %xmm0
	movsd	%xmm0, 32(%rsp)
	movl	60(%rsp), %r14d
	movl	$0, 52(%rsp)
	jmp	.L819
.L831:
	movsd	16(%rsp), %xmm0
	sqrtsd	%xmm0, %xmm0
	addq	$88, %rsp
	.cfi_def_cfa_offset 56
	popq	%rbx
	.cfi_def_cfa_offset 48
	popq	%rbp
	.cfi_def_cfa_offset 40
	popq	%r12
	.cfi_def_cfa_offset 32
	popq	%r13
	.cfi_def_cfa_offset 24
	popq	%r14
	.cfi_def_cfa_offset 16
	popq	%r15
	.cfi_def_cfa_offset 8
	ret
	.cfi_endproc
.LFE11052:
	.size	_ZN22basis_set_calculationsIdE25Wavefunction_4pz_generateEPdS1_jdj, .-_ZN22basis_set_calculationsIdE25Wavefunction_4pz_generateEPdS1_jdj
	.section	.text._ZN22basis_set_calculationsIdE25Wavefunction_4py_generateEPdS1_jdj,"axG",@progbits,_ZN22basis_set_calculationsIdE25Wavefunction_4py_generateEPdS1_jdj,comdat
	.align 2
	.weak	_ZN22basis_set_calculationsIdE25Wavefunction_4py_generateEPdS1_jdj
	.type	_ZN22basis_set_calculationsIdE25Wavefunction_4py_generateEPdS1_jdj, @function
_ZN22basis_set_calculationsIdE25Wavefunction_4py_generateEPdS1_jdj:
.LFB11053:
	.cfi_startproc
	endbr64
	pushq	%r15
	.cfi_def_cfa_offset 16
	.cfi_offset 15, -16
	pushq	%r14
	.cfi_def_cfa_offset 24
	.cfi_offset 14, -24
	pushq	%r13
	.cfi_def_cfa_offset 32
	.cfi_offset 13, -32
	pushq	%r12
	.cfi_def_cfa_offset 40
	.cfi_offset 12, -40
	pushq	%rbp
	.cfi_def_cfa_offset 48
	.cfi_offset 6, -48
	pushq	%rbx
	.cfi_def_cfa_offset 56
	.cfi_offset 3, -56
	subq	$88, %rsp
	.cfi_def_cfa_offset 144
	movq	%rsi, %r15
	movq	%rdx, %rbp
	movl	%ecx, %eax
	movapd	%xmm0, %xmm3
	movl	%r8d, 64(%rsp)
	movsd	.LC27(%rip), %xmm2
	mulsd	80(%rdi), %xmm2
	sqrtsd	%xmm2, %xmm2
	movl	%ecx, %edx
	pxor	%xmm1, %xmm1
	cvtsi2sdq	%rdx, %xmm1
	movapd	%xmm1, %xmm4
	sqrtsd	%xmm4, %xmm4
	movsd	.LC47(%rip), %xmm0
	divsd	%xmm2, %xmm0
	mulsd	%xmm1, %xmm1
	mulsd	%xmm1, %xmm0
	divsd	%xmm4, %xmm0
	movsd	%xmm0, 56(%rsp)
	shrl	%eax
	movl	%eax, %eax
	pxor	%xmm0, %xmm0
	cvtsi2sdq	%rax, %xmm0
	mulsd	%xmm3, %xmm0
	movsd	%xmm0, 48(%rsp)
	leal	1(%r8,%r8), %r13d
	movl	%r13d, %eax
	imull	%r13d, %eax
	movl	%eax, 76(%rsp)
	movl	$0, 72(%rsp)
	movq	$0x000000000, 16(%rsp)
	movl	$0, 68(%rsp)
	jmp	.L837
.L844:
	movsd	48(%rsp), %xmm5
	mulsd	8(%rsp), %xmm5
	movsd	%xmm5, 24(%rsp)
	movapd	%xmm5, %xmm0
	mulsd	.LC7(%rip), %xmm0
	call	exp@PLT
	movapd	%xmm0, %xmm1
	movsd	24(%rsp), %xmm5
	movapd	%xmm5, %xmm0
	subsd	.LC48(%rip), %xmm0
	mulsd	%xmm5, %xmm0
	addsd	.LC31(%rip), %xmm0
	mulsd	%xmm1, %xmm0
	movapd	%xmm5, %xmm1
	mulsd	32(%rsp), %xmm1
	mulsd	%xmm1, %xmm0
	divsd	8(%rsp), %xmm0
	movsd	%xmm0, (%r15,%r12,8)
	mulsd	%xmm0, %xmm0
	addsd	16(%rsp), %xmm0
	movsd	%xmm0, 16(%rsp)
.L840:
	addl	$1, %ebx
	cmpl	%r13d, %ebx
	jnb	.L848
.L841:
	leal	(%r14,%rbx), %r12d
	movsd	0(%rbp,%r12,8), %xmm6
	movsd	%xmm6, 8(%rsp)
	pxor	%xmm7, %xmm7
	ucomisd	%xmm7, %xmm6
	jp	.L844
	jne	.L844
	movq	$0x000000000, (%r15,%r12,8)
	jmp	.L840
.L848:
	addl	$1, 44(%rsp)
	movl	44(%rsp), %eax
	addl	%r13d, %r14d
	movl	64(%rsp), %ecx
	addl	%ecx, %eax
	cmpl	%r13d, %eax
	jnb	.L849
.L842:
	pxor	%xmm0, %xmm0
	cvtsi2sdl	44(%rsp), %xmm0
	mulsd	56(%rsp), %xmm0
	movsd	%xmm0, 32(%rsp)
	movl	$0, %ebx
	jmp	.L841
.L849:
	addl	$1, 68(%rsp)
	movl	68(%rsp), %eax
	movl	76(%rsp), %edi
	addl	%edi, 72(%rsp)
	cmpl	%r13d, %eax
	jnb	.L843
.L837:
	movl	64(%rsp), %eax
	negl	%eax
	movl	%eax, 44(%rsp)
	movl	72(%rsp), %r14d
	jmp	.L842
.L843:
	movsd	16(%rsp), %xmm0
	sqrtsd	%xmm0, %xmm0
	addq	$88, %rsp
	.cfi_def_cfa_offset 56
	popq	%rbx
	.cfi_def_cfa_offset 48
	popq	%rbp
	.cfi_def_cfa_offset 40
	popq	%r12
	.cfi_def_cfa_offset 32
	popq	%r13
	.cfi_def_cfa_offset 24
	popq	%r14
	.cfi_def_cfa_offset 16
	popq	%r15
	.cfi_def_cfa_offset 8
	ret
	.cfi_endproc
.LFE11053:
	.size	_ZN22basis_set_calculationsIdE25Wavefunction_4py_generateEPdS1_jdj, .-_ZN22basis_set_calculationsIdE25Wavefunction_4py_generateEPdS1_jdj
	.section	.text._ZN22basis_set_calculationsIdE25Wavefunction_5px_generateEPdS1_jdj,"axG",@progbits,_ZN22basis_set_calculationsIdE25Wavefunction_5px_generateEPdS1_jdj,comdat
	.align 2
	.weak	_ZN22basis_set_calculationsIdE25Wavefunction_5px_generateEPdS1_jdj
	.type	_ZN22basis_set_calculationsIdE25Wavefunction_5px_generateEPdS1_jdj, @function
_ZN22basis_set_calculationsIdE25Wavefunction_5px_generateEPdS1_jdj:
.LFB11054:
	.cfi_startproc
	endbr64
	pushq	%r15
	.cfi_def_cfa_offset 16
	.cfi_offset 15, -16
	pushq	%r14
	.cfi_def_cfa_offset 24
	.cfi_offset 14, -24
	pushq	%r13
	.cfi_def_cfa_offset 32
	.cfi_offset 13, -32
	pushq	%r12
	.cfi_def_cfa_offset 40
	.cfi_offset 12, -40
	pushq	%rbp
	.cfi_def_cfa_offset 48
	.cfi_offset 6, -48
	pushq	%rbx
	.cfi_def_cfa_offset 56
	.cfi_offset 3, -56
	subq	$88, %rsp
	.cfi_def_cfa_offset 144
	movq	%rsi, 24(%rsp)
	movq	%rdx, %rbp
	movl	%ecx, %eax
	movapd	%xmm0, %xmm3
	movl	%r8d, %r15d
	movsd	.LC48(%rip), %xmm2
	mulsd	80(%rdi), %xmm2
	sqrtsd	%xmm2, %xmm2
	movl	%ecx, %edx
	pxor	%xmm1, %xmm1
	cvtsi2sdq	%rdx, %xmm1
	movapd	%xmm1, %xmm4
	sqrtsd	%xmm4, %xmm4
	movsd	.LC49(%rip), %xmm0
	divsd	%xmm2, %xmm0
	mulsd	%xmm1, %xmm1
	mulsd	%xmm1, %xmm0
	divsd	%xmm4, %xmm0
	movsd	%xmm0, 48(%rsp)
	leal	(%rax,%rax), %eax
	movl	$3435973837, %edx
	imulq	%rdx, %rax
	shrq	$34, %rax
	pxor	%xmm0, %xmm0
	cvtsi2sdq	%rax, %xmm0
	mulsd	%xmm3, %xmm0
	movsd	%xmm0, 56(%rsp)
	leal	1(%r8,%r8), %r13d
	movl	%r13d, %eax
	imull	%r13d, %eax
	movl	%eax, 76(%rsp)
	movl	%r8d, 72(%rsp)
	movq	$0x000000000, 16(%rsp)
	movl	$0, 68(%rsp)
	jmp	.L855
.L863:
	movsd	56(%rsp), %xmm6
	mulsd	8(%rsp), %xmm6
	movapd	%xmm6, %xmm5
	mulsd	%xmm6, %xmm5
	movsd	%xmm5, 32(%rsp)
	movsd	%xmm6, 40(%rsp)
	movapd	%xmm6, %xmm0
	mulsd	.LC7(%rip), %xmm0
	call	exp@PLT
	movapd	%xmm0, %xmm2
	movsd	32(%rsp), %xmm5
	movapd	%xmm5, %xmm1
	mulsd	.LC50(%rip), %xmm1
	movsd	40(%rsp), %xmm6
	movapd	%xmm6, %xmm0
	mulsd	.LC51(%rip), %xmm0
	subsd	%xmm0, %xmm1
	mulsd	%xmm6, %xmm5
	movsd	.LC29(%rip), %xmm3
	subsd	%xmm5, %xmm3
	addsd	%xmm3, %xmm1
	mulsd	%xmm6, %xmm1
	pxor	%xmm0, %xmm0
	cvtsi2sdl	%ebx, %xmm0
	mulsd	48(%rsp), %xmm0
	mulsd	%xmm1, %xmm0
	mulsd	%xmm2, %xmm0
	divsd	8(%rsp), %xmm0
	movq	24(%rsp), %rax
	movsd	%xmm0, (%rax,%r12,8)
	mulsd	%xmm0, %xmm0
	addsd	16(%rsp), %xmm0
	movsd	%xmm0, 16(%rsp)
.L858:
	addl	$1, %ebx
	leal	(%r15,%rbx), %eax
	cmpl	%r13d, %eax
	jnb	.L866
.L859:
	leal	(%r14,%rbx), %r12d
	movsd	0(%rbp,%r12,8), %xmm7
	movsd	%xmm7, 8(%rsp)
	pxor	%xmm4, %xmm4
	ucomisd	%xmm4, %xmm7
	jp	.L863
	jne	.L863
	movq	24(%rsp), %rax
	movq	$0x000000000, (%rax,%r12,8)
	jmp	.L858
.L866:
	addl	$1, 64(%rsp)
	movl	64(%rsp), %eax
	addl	%r13d, %r14d
	cmpl	%r13d, %eax
	jnb	.L860
.L862:
	movl	%r15d, %ebx
	negl	%ebx
	jmp	.L859
.L860:
	addl	$1, 68(%rsp)
	movl	68(%rsp), %eax
	movl	76(%rsp), %esi
	addl	%esi, 72(%rsp)
	cmpl	%r13d, %eax
	jnb	.L861
.L855:
	movl	72(%rsp), %r14d
	movl	$0, 64(%rsp)
	jmp	.L862
.L861:
	movsd	16(%rsp), %xmm0
	sqrtsd	%xmm0, %xmm0
	addq	$88, %rsp
	.cfi_def_cfa_offset 56
	popq	%rbx
	.cfi_def_cfa_offset 48
	popq	%rbp
	.cfi_def_cfa_offset 40
	popq	%r12
	.cfi_def_cfa_offset 32
	popq	%r13
	.cfi_def_cfa_offset 24
	popq	%r14
	.cfi_def_cfa_offset 16
	popq	%r15
	.cfi_def_cfa_offset 8
	ret
	.cfi_endproc
.LFE11054:
	.size	_ZN22basis_set_calculationsIdE25Wavefunction_5px_generateEPdS1_jdj, .-_ZN22basis_set_calculationsIdE25Wavefunction_5px_generateEPdS1_jdj
	.section	.text._ZN22basis_set_calculationsIdE25Wavefunction_5pz_generateEPdS1_jdj,"axG",@progbits,_ZN22basis_set_calculationsIdE25Wavefunction_5pz_generateEPdS1_jdj,comdat
	.align 2
	.weak	_ZN22basis_set_calculationsIdE25Wavefunction_5pz_generateEPdS1_jdj
	.type	_ZN22basis_set_calculationsIdE25Wavefunction_5pz_generateEPdS1_jdj, @function
_ZN22basis_set_calculationsIdE25Wavefunction_5pz_generateEPdS1_jdj:
.LFB11055:
	.cfi_startproc
	endbr64
	pushq	%r15
	.cfi_def_cfa_offset 16
	.cfi_offset 15, -16
	pushq	%r14
	.cfi_def_cfa_offset 24
	.cfi_offset 14, -24
	pushq	%r13
	.cfi_def_cfa_offset 32
	.cfi_offset 13, -32
	pushq	%r12
	.cfi_def_cfa_offset 40
	.cfi_offset 12, -40
	pushq	%rbp
	.cfi_def_cfa_offset 48
	.cfi_offset 6, -48
	pushq	%rbx
	.cfi_def_cfa_offset 56
	.cfi_offset 3, -56
	subq	$88, %rsp
	.cfi_def_cfa_offset 144
	movq	%rsi, %r15
	movq	%rdx, %rbp
	movl	%ecx, %eax
	movapd	%xmm0, %xmm3
	movl	%r8d, 76(%rsp)
	movsd	.LC48(%rip), %xmm2
	mulsd	80(%rdi), %xmm2
	sqrtsd	%xmm2, %xmm2
	movl	%ecx, %edx
	pxor	%xmm1, %xmm1
	cvtsi2sdq	%rdx, %xmm1
	movapd	%xmm1, %xmm4
	sqrtsd	%xmm4, %xmm4
	movsd	.LC49(%rip), %xmm0
	divsd	%xmm2, %xmm0
	mulsd	%xmm1, %xmm1
	mulsd	%xmm1, %xmm0
	divsd	%xmm4, %xmm0
	movsd	%xmm0, 64(%rsp)
	leal	(%rax,%rax), %eax
	movl	$3435973837, %edx
	imulq	%rdx, %rax
	shrq	$34, %rax
	pxor	%xmm0, %xmm0
	cvtsi2sdq	%rax, %xmm0
	mulsd	%xmm3, %xmm0
	movsd	%xmm0, 40(%rsp)
	leal	1(%r8,%r8), %r13d
	negl	%r8d
	movl	%r8d, 56(%rsp)
	movl	%r13d, %eax
	imull	%r13d, %eax
	movl	%eax, 72(%rsp)
	movl	$0, 60(%rsp)
	movq	$0x000000000, 8(%rsp)
	jmp	.L878
.L879:
	movsd	40(%rsp), %xmm5
	mulsd	(%rsp), %xmm5
	movapd	%xmm5, %xmm6
	mulsd	%xmm5, %xmm6
	movsd	%xmm6, 16(%rsp)
	movsd	%xmm5, 24(%rsp)
	movapd	%xmm5, %xmm0
	mulsd	.LC7(%rip), %xmm0
	call	exp@PLT
	movapd	%xmm0, %xmm2
	movsd	16(%rsp), %xmm6
	movapd	%xmm6, %xmm7
	mulsd	.LC50(%rip), %xmm7
	movapd	%xmm7, %xmm0
	movsd	24(%rsp), %xmm5
	movapd	%xmm5, %xmm1
	mulsd	.LC51(%rip), %xmm1
	subsd	%xmm1, %xmm0
	mulsd	%xmm5, %xmm6
	movsd	.LC29(%rip), %xmm3
	subsd	%xmm6, %xmm3
	addsd	%xmm3, %xmm0
	mulsd	%xmm2, %xmm0
	movapd	%xmm5, %xmm1
	mulsd	32(%rsp), %xmm1
	mulsd	%xmm1, %xmm0
	divsd	(%rsp), %xmm0
	movsd	%xmm0, (%r15,%r12,8)
	mulsd	%xmm0, %xmm0
	addsd	8(%rsp), %xmm0
	movsd	%xmm0, 8(%rsp)
.L875:
	addl	$1, %ebx
	cmpl	%r13d, %ebx
	jnb	.L883
.L876:
	leal	(%r14,%rbx), %r12d
	movsd	0(%rbp,%r12,8), %xmm4
	movsd	%xmm4, (%rsp)
	pxor	%xmm3, %xmm3
	ucomisd	%xmm3, %xmm4
	jp	.L879
	jne	.L879
	movq	$0x000000000, (%r15,%r12,8)
	jmp	.L875
.L883:
	addl	$1, 52(%rsp)
	movl	52(%rsp), %eax
	addl	%r13d, %r14d
	cmpl	%r13d, %eax
	jnb	.L877
.L872:
	movl	$0, %ebx
	jmp	.L876
.L877:
	addl	$1, 56(%rsp)
	movl	56(%rsp), %eax
	movl	72(%rsp), %esi
	addl	%esi, 60(%rsp)
	movl	76(%rsp), %edi
	addl	%edi, %eax
	cmpl	%r13d, %eax
	jnb	.L884
.L878:
	pxor	%xmm0, %xmm0
	cvtsi2sdl	56(%rsp), %xmm0
	mulsd	64(%rsp), %xmm0
	movsd	%xmm0, 32(%rsp)
	movl	60(%rsp), %r14d
	movl	$0, 52(%rsp)
	jmp	.L872
.L884:
	movsd	8(%rsp), %xmm0
	sqrtsd	%xmm0, %xmm0
	addq	$88, %rsp
	.cfi_def_cfa_offset 56
	popq	%rbx
	.cfi_def_cfa_offset 48
	popq	%rbp
	.cfi_def_cfa_offset 40
	popq	%r12
	.cfi_def_cfa_offset 32
	popq	%r13
	.cfi_def_cfa_offset 24
	popq	%r14
	.cfi_def_cfa_offset 16
	popq	%r15
	.cfi_def_cfa_offset 8
	ret
	.cfi_endproc
.LFE11055:
	.size	_ZN22basis_set_calculationsIdE25Wavefunction_5pz_generateEPdS1_jdj, .-_ZN22basis_set_calculationsIdE25Wavefunction_5pz_generateEPdS1_jdj
	.section	.text._ZN22basis_set_calculationsIdE25Wavefunction_5py_generateEPdS1_jdj,"axG",@progbits,_ZN22basis_set_calculationsIdE25Wavefunction_5py_generateEPdS1_jdj,comdat
	.align 2
	.weak	_ZN22basis_set_calculationsIdE25Wavefunction_5py_generateEPdS1_jdj
	.type	_ZN22basis_set_calculationsIdE25Wavefunction_5py_generateEPdS1_jdj, @function
_ZN22basis_set_calculationsIdE25Wavefunction_5py_generateEPdS1_jdj:
.LFB11056:
	.cfi_startproc
	endbr64
	pushq	%r15
	.cfi_def_cfa_offset 16
	.cfi_offset 15, -16
	pushq	%r14
	.cfi_def_cfa_offset 24
	.cfi_offset 14, -24
	pushq	%r13
	.cfi_def_cfa_offset 32
	.cfi_offset 13, -32
	pushq	%r12
	.cfi_def_cfa_offset 40
	.cfi_offset 12, -40
	pushq	%rbp
	.cfi_def_cfa_offset 48
	.cfi_offset 6, -48
	pushq	%rbx
	.cfi_def_cfa_offset 56
	.cfi_offset 3, -56
	subq	$88, %rsp
	.cfi_def_cfa_offset 144
	movq	%rsi, %r15
	movq	%rdx, %rbp
	movl	%ecx, %eax
	movapd	%xmm0, %xmm3
	movl	%r8d, 64(%rsp)
	movsd	.LC48(%rip), %xmm2
	mulsd	80(%rdi), %xmm2
	sqrtsd	%xmm2, %xmm2
	movl	%ecx, %edx
	pxor	%xmm1, %xmm1
	cvtsi2sdq	%rdx, %xmm1
	movapd	%xmm1, %xmm4
	sqrtsd	%xmm4, %xmm4
	movsd	.LC49(%rip), %xmm0
	divsd	%xmm2, %xmm0
	mulsd	%xmm1, %xmm1
	mulsd	%xmm1, %xmm0
	divsd	%xmm4, %xmm0
	movsd	%xmm0, 56(%rsp)
	leal	(%rax,%rax), %eax
	movl	$3435973837, %edx
	imulq	%rdx, %rax
	shrq	$34, %rax
	pxor	%xmm0, %xmm0
	cvtsi2sdq	%rax, %xmm0
	mulsd	%xmm3, %xmm0
	movsd	%xmm0, 48(%rsp)
	leal	1(%r8,%r8), %r13d
	movl	%r13d, %eax
	imull	%r13d, %eax
	movl	%eax, 76(%rsp)
	movl	$0, 72(%rsp)
	movq	$0x000000000, 8(%rsp)
	movl	$0, 68(%rsp)
	jmp	.L890
.L897:
	movsd	48(%rsp), %xmm5
	mulsd	(%rsp), %xmm5
	movapd	%xmm5, %xmm6
	mulsd	%xmm5, %xmm6
	movsd	%xmm6, 16(%rsp)
	movsd	%xmm5, 24(%rsp)
	movapd	%xmm5, %xmm0
	mulsd	.LC7(%rip), %xmm0
	call	exp@PLT
	movapd	%xmm0, %xmm2
	movsd	16(%rsp), %xmm6
	movapd	%xmm6, %xmm7
	mulsd	.LC50(%rip), %xmm7
	movapd	%xmm7, %xmm0
	movsd	24(%rsp), %xmm5
	movapd	%xmm5, %xmm1
	mulsd	.LC51(%rip), %xmm1
	subsd	%xmm1, %xmm0
	mulsd	%xmm5, %xmm6
	movsd	.LC29(%rip), %xmm3
	subsd	%xmm6, %xmm3
	addsd	%xmm3, %xmm0
	mulsd	%xmm2, %xmm0
	movapd	%xmm5, %xmm1
	mulsd	32(%rsp), %xmm1
	mulsd	%xmm1, %xmm0
	divsd	(%rsp), %xmm0
	movsd	%xmm0, (%r15,%r12,8)
	mulsd	%xmm0, %xmm0
	addsd	8(%rsp), %xmm0
	movsd	%xmm0, 8(%rsp)
.L893:
	addl	$1, %ebx
	cmpl	%r13d, %ebx
	jnb	.L901
.L894:
	leal	(%r14,%rbx), %r12d
	movsd	0(%rbp,%r12,8), %xmm4
	movsd	%xmm4, (%rsp)
	pxor	%xmm3, %xmm3
	ucomisd	%xmm3, %xmm4
	jp	.L897
	jne	.L897
	movq	$0x000000000, (%r15,%r12,8)
	jmp	.L893
.L901:
	addl	$1, 44(%rsp)
	movl	44(%rsp), %eax
	addl	%r13d, %r14d
	movl	64(%rsp), %ecx
	addl	%ecx, %eax
	cmpl	%r13d, %eax
	jnb	.L902
.L895:
	pxor	%xmm0, %xmm0
	cvtsi2sdl	44(%rsp), %xmm0
	mulsd	56(%rsp), %xmm0
	movsd	%xmm0, 32(%rsp)
	movl	$0, %ebx
	jmp	.L894
.L902:
	addl	$1, 68(%rsp)
	movl	68(%rsp), %eax
	movl	76(%rsp), %edi
	addl	%edi, 72(%rsp)
	cmpl	%r13d, %eax
	jnb	.L896
.L890:
	movl	64(%rsp), %eax
	negl	%eax
	movl	%eax, 44(%rsp)
	movl	72(%rsp), %r14d
	jmp	.L895
.L896:
	movsd	8(%rsp), %xmm0
	sqrtsd	%xmm0, %xmm0
	addq	$88, %rsp
	.cfi_def_cfa_offset 56
	popq	%rbx
	.cfi_def_cfa_offset 48
	popq	%rbp
	.cfi_def_cfa_offset 40
	popq	%r12
	.cfi_def_cfa_offset 32
	popq	%r13
	.cfi_def_cfa_offset 24
	popq	%r14
	.cfi_def_cfa_offset 16
	popq	%r15
	.cfi_def_cfa_offset 8
	ret
	.cfi_endproc
.LFE11056:
	.size	_ZN22basis_set_calculationsIdE25Wavefunction_5py_generateEPdS1_jdj, .-_ZN22basis_set_calculationsIdE25Wavefunction_5py_generateEPdS1_jdj
	.section	.text._ZN22basis_set_calculationsIdE25Wavefunction_6px_generateEPdS1_jdj,"axG",@progbits,_ZN22basis_set_calculationsIdE25Wavefunction_6px_generateEPdS1_jdj,comdat
	.align 2
	.weak	_ZN22basis_set_calculationsIdE25Wavefunction_6px_generateEPdS1_jdj
	.type	_ZN22basis_set_calculationsIdE25Wavefunction_6px_generateEPdS1_jdj, @function
_ZN22basis_set_calculationsIdE25Wavefunction_6px_generateEPdS1_jdj:
.LFB11057:
	.cfi_startproc
	endbr64
	pushq	%r15
	.cfi_def_cfa_offset 16
	.cfi_offset 15, -16
	pushq	%r14
	.cfi_def_cfa_offset 24
	.cfi_offset 14, -24
	pushq	%r13
	.cfi_def_cfa_offset 32
	.cfi_offset 13, -32
	pushq	%r12
	.cfi_def_cfa_offset 40
	.cfi_offset 12, -40
	pushq	%rbp
	.cfi_def_cfa_offset 48
	.cfi_offset 6, -48
	pushq	%rbx
	.cfi_def_cfa_offset 56
	.cfi_offset 3, -56
	subq	$88, %rsp
	.cfi_def_cfa_offset 144
	movq	%rsi, 16(%rsp)
	movq	%rdx, %rbp
	movapd	%xmm0, %xmm3
	movl	%r8d, %r15d
	movsd	.LC52(%rip), %xmm2
	mulsd	80(%rdi), %xmm2
	sqrtsd	%xmm2, %xmm2
	movl	%ecx, %edx
	pxor	%xmm1, %xmm1
	cvtsi2sdq	%rdx, %xmm1
	movapd	%xmm1, %xmm4
	sqrtsd	%xmm4, %xmm4
	movsd	.LC53(%rip), %xmm0
	divsd	%xmm2, %xmm0
	mulsd	%xmm1, %xmm1
	mulsd	%xmm1, %xmm0
	divsd	%xmm4, %xmm0
	movsd	%xmm0, 48(%rsp)
	movl	%ecx, %eax
	movl	$2863311531, %edx
	imulq	%rdx, %rax
	shrq	$33, %rax
	pxor	%xmm0, %xmm0
	cvtsi2sdq	%rax, %xmm0
	mulsd	%xmm3, %xmm0
	movsd	%xmm0, 56(%rsp)
	leal	1(%r8,%r8), %r13d
	movl	%r13d, %eax
	imull	%r13d, %eax
	movl	%eax, 76(%rsp)
	movl	%r8d, 72(%rsp)
	movq	$0x000000000, 8(%rsp)
	movl	$0, 68(%rsp)
	jmp	.L908
.L916:
	movsd	56(%rsp), %xmm5
	mulsd	(%rsp), %xmm5
	movapd	%xmm5, %xmm6
	mulsd	%xmm5, %xmm6
	movsd	%xmm6, 32(%rsp)
	movapd	%xmm6, %xmm7
	mulsd	%xmm5, %xmm7
	movsd	%xmm7, 24(%rsp)
	movsd	%xmm5, 40(%rsp)
	movapd	%xmm5, %xmm0
	mulsd	.LC7(%rip), %xmm0
	call	exp@PLT
	movapd	%xmm0, %xmm3
	movsd	.LC5(%rip), %xmm1
	movsd	40(%rsp), %xmm5
	subsd	%xmm5, %xmm1
	mulsd	.LC54(%rip), %xmm1
	movsd	24(%rsp), %xmm6
	movapd	%xmm6, %xmm0
	mulsd	%xmm5, %xmm0
	addsd	%xmm0, %xmm1
	movsd	32(%rsp), %xmm0
	mulsd	.LC55(%rip), %xmm0
	movapd	%xmm6, %xmm2
	mulsd	.LC56(%rip), %xmm2
	subsd	%xmm2, %xmm0
	addsd	%xmm0, %xmm1
	mulsd	%xmm5, %xmm1
	pxor	%xmm0, %xmm0
	cvtsi2sdl	%ebx, %xmm0
	mulsd	48(%rsp), %xmm0
	mulsd	%xmm1, %xmm0
	mulsd	%xmm3, %xmm0
	divsd	(%rsp), %xmm0
	movq	16(%rsp), %rax
	movsd	%xmm0, (%rax,%r12,8)
	mulsd	%xmm0, %xmm0
	addsd	8(%rsp), %xmm0
	movsd	%xmm0, 8(%rsp)
.L911:
	addl	$1, %ebx
	leal	(%rbx,%r15), %eax
	cmpl	%r13d, %eax
	jnb	.L919
.L912:
	leal	(%r14,%rbx), %r12d
	movsd	0(%rbp,%r12,8), %xmm4
	movsd	%xmm4, (%rsp)
	pxor	%xmm3, %xmm3
	ucomisd	%xmm3, %xmm4
	jp	.L916
	jne	.L916
	movq	16(%rsp), %rax
	movq	$0x000000000, (%rax,%r12,8)
	jmp	.L911
.L919:
	addl	$1, 64(%rsp)
	movl	64(%rsp), %eax
	addl	%r13d, %r14d
	cmpl	%r13d, %eax
	jnb	.L913
.L915:
	movl	%r15d, %ebx
	negl	%ebx
	jmp	.L912
.L913:
	addl	$1, 68(%rsp)
	movl	68(%rsp), %eax
	movl	76(%rsp), %esi
	addl	%esi, 72(%rsp)
	cmpl	%r13d, %eax
	jnb	.L914
.L908:
	movl	72(%rsp), %r14d
	movl	$0, 64(%rsp)
	jmp	.L915
.L914:
	movsd	8(%rsp), %xmm0
	sqrtsd	%xmm0, %xmm0
	addq	$88, %rsp
	.cfi_def_cfa_offset 56
	popq	%rbx
	.cfi_def_cfa_offset 48
	popq	%rbp
	.cfi_def_cfa_offset 40
	popq	%r12
	.cfi_def_cfa_offset 32
	popq	%r13
	.cfi_def_cfa_offset 24
	popq	%r14
	.cfi_def_cfa_offset 16
	popq	%r15
	.cfi_def_cfa_offset 8
	ret
	.cfi_endproc
.LFE11057:
	.size	_ZN22basis_set_calculationsIdE25Wavefunction_6px_generateEPdS1_jdj, .-_ZN22basis_set_calculationsIdE25Wavefunction_6px_generateEPdS1_jdj
	.section	.text._ZN22basis_set_calculationsIdE25Wavefunction_6pz_generateEPdS1_jdj,"axG",@progbits,_ZN22basis_set_calculationsIdE25Wavefunction_6pz_generateEPdS1_jdj,comdat
	.align 2
	.weak	_ZN22basis_set_calculationsIdE25Wavefunction_6pz_generateEPdS1_jdj
	.type	_ZN22basis_set_calculationsIdE25Wavefunction_6pz_generateEPdS1_jdj, @function
_ZN22basis_set_calculationsIdE25Wavefunction_6pz_generateEPdS1_jdj:
.LFB11058:
	.cfi_startproc
	endbr64
	pushq	%r15
	.cfi_def_cfa_offset 16
	.cfi_offset 15, -16
	pushq	%r14
	.cfi_def_cfa_offset 24
	.cfi_offset 14, -24
	pushq	%r13
	.cfi_def_cfa_offset 32
	.cfi_offset 13, -32
	pushq	%r12
	.cfi_def_cfa_offset 40
	.cfi_offset 12, -40
	pushq	%rbp
	.cfi_def_cfa_offset 48
	.cfi_offset 6, -48
	pushq	%rbx
	.cfi_def_cfa_offset 56
	.cfi_offset 3, -56
	subq	$104, %rsp
	.cfi_def_cfa_offset 160
	movq	%rsi, %r15
	movq	%rdx, %rbp
	movapd	%xmm0, %xmm3
	movl	%r8d, 92(%rsp)
	movsd	.LC52(%rip), %xmm2
	mulsd	80(%rdi), %xmm2
	sqrtsd	%xmm2, %xmm2
	movl	%ecx, %edx
	pxor	%xmm1, %xmm1
	cvtsi2sdq	%rdx, %xmm1
	movapd	%xmm1, %xmm4
	sqrtsd	%xmm4, %xmm4
	movsd	.LC53(%rip), %xmm0
	divsd	%xmm2, %xmm0
	mulsd	%xmm1, %xmm1
	mulsd	%xmm1, %xmm0
	divsd	%xmm4, %xmm0
	movsd	%xmm0, 80(%rsp)
	movl	%ecx, %eax
	movl	$2863311531, %edx
	imulq	%rdx, %rax
	shrq	$33, %rax
	pxor	%xmm0, %xmm0
	cvtsi2sdq	%rax, %xmm0
	mulsd	%xmm3, %xmm0
	movsd	%xmm0, 56(%rsp)
	leal	1(%r8,%r8), %r13d
	negl	%r8d
	movl	%r8d, 72(%rsp)
	movl	%r13d, %eax
	imull	%r13d, %eax
	movl	%eax, 88(%rsp)
	movl	$0, 76(%rsp)
	movq	$0x000000000, 16(%rsp)
	jmp	.L931
.L932:
	movsd	56(%rsp), %xmm5
	mulsd	8(%rsp), %xmm5
	movapd	%xmm5, %xmm6
	mulsd	%xmm5, %xmm6
	movsd	%xmm6, 32(%rsp)
	movapd	%xmm6, %xmm7
	mulsd	%xmm5, %xmm7
	movsd	%xmm7, 24(%rsp)
	movsd	%xmm5, 40(%rsp)
	movapd	%xmm5, %xmm0
	mulsd	.LC7(%rip), %xmm0
	call	exp@PLT
	movapd	%xmm0, %xmm3
	movsd	.LC5(%rip), %xmm4
	movsd	40(%rsp), %xmm5
	subsd	%xmm5, %xmm4
	movapd	%xmm4, %xmm0
	mulsd	.LC54(%rip), %xmm0
	movsd	24(%rsp), %xmm6
	movapd	%xmm6, %xmm1
	mulsd	%xmm5, %xmm1
	addsd	%xmm1, %xmm0
	movsd	32(%rsp), %xmm1
	mulsd	.LC55(%rip), %xmm1
	movapd	%xmm6, %xmm2
	mulsd	.LC56(%rip), %xmm2
	subsd	%xmm2, %xmm1
	addsd	%xmm1, %xmm0
	mulsd	%xmm3, %xmm0
	movapd	%xmm5, %xmm1
	mulsd	48(%rsp), %xmm1
	mulsd	%xmm1, %xmm0
	divsd	8(%rsp), %xmm0
	movsd	%xmm0, (%r15,%r12,8)
	mulsd	%xmm0, %xmm0
	addsd	16(%rsp), %xmm0
	movsd	%xmm0, 16(%rsp)
.L928:
	addl	$1, %ebx
	cmpl	%r13d, %ebx
	jnb	.L936
.L929:
	leal	(%r14,%rbx), %r12d
	movsd	0(%rbp,%r12,8), %xmm4
	movsd	%xmm4, 8(%rsp)
	pxor	%xmm3, %xmm3
	ucomisd	%xmm3, %xmm4
	jp	.L932
	jne	.L932
	movq	$0x000000000, (%r15,%r12,8)
	jmp	.L928
.L936:
	addl	$1, 68(%rsp)
	movl	68(%rsp), %eax
	addl	%r13d, %r14d
	cmpl	%r13d, %eax
	jnb	.L930
.L925:
	movl	$0, %ebx
	jmp	.L929
.L930:
	addl	$1, 72(%rsp)
	movl	72(%rsp), %eax
	movl	88(%rsp), %esi
	addl	%esi, 76(%rsp)
	movl	92(%rsp), %edi
	addl	%edi, %eax
	cmpl	%r13d, %eax
	jnb	.L937
.L931:
	pxor	%xmm0, %xmm0
	cvtsi2sdl	72(%rsp), %xmm0
	mulsd	80(%rsp), %xmm0
	movsd	%xmm0, 48(%rsp)
	movl	76(%rsp), %r14d
	movl	$0, 68(%rsp)
	jmp	.L925
.L937:
	movsd	16(%rsp), %xmm0
	sqrtsd	%xmm0, %xmm0
	addq	$104, %rsp
	.cfi_def_cfa_offset 56
	popq	%rbx
	.cfi_def_cfa_offset 48
	popq	%rbp
	.cfi_def_cfa_offset 40
	popq	%r12
	.cfi_def_cfa_offset 32
	popq	%r13
	.cfi_def_cfa_offset 24
	popq	%r14
	.cfi_def_cfa_offset 16
	popq	%r15
	.cfi_def_cfa_offset 8
	ret
	.cfi_endproc
.LFE11058:
	.size	_ZN22basis_set_calculationsIdE25Wavefunction_6pz_generateEPdS1_jdj, .-_ZN22basis_set_calculationsIdE25Wavefunction_6pz_generateEPdS1_jdj
	.section	.text._ZN22basis_set_calculationsIdE25Wavefunction_6py_generateEPdS1_jdj,"axG",@progbits,_ZN22basis_set_calculationsIdE25Wavefunction_6py_generateEPdS1_jdj,comdat
	.align 2
	.weak	_ZN22basis_set_calculationsIdE25Wavefunction_6py_generateEPdS1_jdj
	.type	_ZN22basis_set_calculationsIdE25Wavefunction_6py_generateEPdS1_jdj, @function
_ZN22basis_set_calculationsIdE25Wavefunction_6py_generateEPdS1_jdj:
.LFB11059:
	.cfi_startproc
	endbr64
	pushq	%r15
	.cfi_def_cfa_offset 16
	.cfi_offset 15, -16
	pushq	%r14
	.cfi_def_cfa_offset 24
	.cfi_offset 14, -24
	pushq	%r13
	.cfi_def_cfa_offset 32
	.cfi_offset 13, -32
	pushq	%r12
	.cfi_def_cfa_offset 40
	.cfi_offset 12, -40
	pushq	%rbp
	.cfi_def_cfa_offset 48
	.cfi_offset 6, -48
	pushq	%rbx
	.cfi_def_cfa_offset 56
	.cfi_offset 3, -56
	subq	$104, %rsp
	.cfi_def_cfa_offset 160
	movq	%rsi, %r15
	movq	%rdx, %rbp
	movapd	%xmm0, %xmm3
	movl	%r8d, 80(%rsp)
	movsd	.LC52(%rip), %xmm2
	mulsd	80(%rdi), %xmm2
	sqrtsd	%xmm2, %xmm2
	movl	%ecx, %edx
	pxor	%xmm1, %xmm1
	cvtsi2sdq	%rdx, %xmm1
	movapd	%xmm1, %xmm4
	sqrtsd	%xmm4, %xmm4
	movsd	.LC53(%rip), %xmm0
	divsd	%xmm2, %xmm0
	mulsd	%xmm1, %xmm1
	mulsd	%xmm1, %xmm0
	divsd	%xmm4, %xmm0
	movsd	%xmm0, 72(%rsp)
	movl	%ecx, %eax
	movl	$2863311531, %edx
	imulq	%rdx, %rax
	shrq	$33, %rax
	pxor	%xmm0, %xmm0
	cvtsi2sdq	%rax, %xmm0
	mulsd	%xmm3, %xmm0
	movsd	%xmm0, 64(%rsp)
	leal	1(%r8,%r8), %r13d
	movl	%r13d, %eax
	imull	%r13d, %eax
	movl	%eax, 92(%rsp)
	movl	$0, 88(%rsp)
	movq	$0x000000000, 16(%rsp)
	movl	$0, 84(%rsp)
	jmp	.L943
.L950:
	movsd	64(%rsp), %xmm5
	mulsd	8(%rsp), %xmm5
	movapd	%xmm5, %xmm6
	mulsd	%xmm5, %xmm6
	movsd	%xmm6, 32(%rsp)
	movapd	%xmm6, %xmm7
	mulsd	%xmm5, %xmm7
	movsd	%xmm7, 24(%rsp)
	movsd	%xmm5, 40(%rsp)
	movapd	%xmm5, %xmm0
	mulsd	.LC7(%rip), %xmm0
	call	exp@PLT
	movapd	%xmm0, %xmm3
	movsd	.LC5(%rip), %xmm4
	movsd	40(%rsp), %xmm5
	subsd	%xmm5, %xmm4
	movapd	%xmm4, %xmm0
	mulsd	.LC54(%rip), %xmm0
	movsd	24(%rsp), %xmm6
	movapd	%xmm6, %xmm1
	mulsd	%xmm5, %xmm1
	addsd	%xmm1, %xmm0
	movsd	32(%rsp), %xmm1
	mulsd	.LC55(%rip), %xmm1
	movapd	%xmm6, %xmm2
	mulsd	.LC56(%rip), %xmm2
	subsd	%xmm2, %xmm1
	addsd	%xmm1, %xmm0
	mulsd	%xmm3, %xmm0
	movapd	%xmm5, %xmm1
	mulsd	48(%rsp), %xmm1
	mulsd	%xmm1, %xmm0
	divsd	8(%rsp), %xmm0
	movsd	%xmm0, (%r15,%r12,8)
	mulsd	%xmm0, %xmm0
	addsd	16(%rsp), %xmm0
	movsd	%xmm0, 16(%rsp)
.L946:
	addl	$1, %ebx
	cmpl	%r13d, %ebx
	jnb	.L954
.L947:
	leal	(%r14,%rbx), %r12d
	movsd	0(%rbp,%r12,8), %xmm4
	movsd	%xmm4, 8(%rsp)
	pxor	%xmm3, %xmm3
	ucomisd	%xmm3, %xmm4
	jp	.L950
	jne	.L950
	movq	$0x000000000, (%r15,%r12,8)
	jmp	.L946
.L954:
	addl	$1, 60(%rsp)
	movl	60(%rsp), %eax
	addl	%r13d, %r14d
	movl	80(%rsp), %ecx
	addl	%ecx, %eax
	cmpl	%r13d, %eax
	jnb	.L955
.L948:
	pxor	%xmm0, %xmm0
	cvtsi2sdl	60(%rsp), %xmm0
	mulsd	72(%rsp), %xmm0
	movsd	%xmm0, 48(%rsp)
	movl	$0, %ebx
	jmp	.L947
.L955:
	addl	$1, 84(%rsp)
	movl	84(%rsp), %eax
	movl	92(%rsp), %edi
	addl	%edi, 88(%rsp)
	cmpl	%r13d, %eax
	jnb	.L949
.L943:
	movl	80(%rsp), %eax
	negl	%eax
	movl	%eax, 60(%rsp)
	movl	88(%rsp), %r14d
	jmp	.L948
.L949:
	movsd	16(%rsp), %xmm0
	sqrtsd	%xmm0, %xmm0
	addq	$104, %rsp
	.cfi_def_cfa_offset 56
	popq	%rbx
	.cfi_def_cfa_offset 48
	popq	%rbp
	.cfi_def_cfa_offset 40
	popq	%r12
	.cfi_def_cfa_offset 32
	popq	%r13
	.cfi_def_cfa_offset 24
	popq	%r14
	.cfi_def_cfa_offset 16
	popq	%r15
	.cfi_def_cfa_offset 8
	ret
	.cfi_endproc
.LFE11059:
	.size	_ZN22basis_set_calculationsIdE25Wavefunction_6py_generateEPdS1_jdj, .-_ZN22basis_set_calculationsIdE25Wavefunction_6py_generateEPdS1_jdj
	.section	.text._ZN22basis_set_calculationsIdE25Wavefunction_7px_generateEPdS1_jdj,"axG",@progbits,_ZN22basis_set_calculationsIdE25Wavefunction_7px_generateEPdS1_jdj,comdat
	.align 2
	.weak	_ZN22basis_set_calculationsIdE25Wavefunction_7px_generateEPdS1_jdj
	.type	_ZN22basis_set_calculationsIdE25Wavefunction_7px_generateEPdS1_jdj, @function
_ZN22basis_set_calculationsIdE25Wavefunction_7px_generateEPdS1_jdj:
.LFB11060:
	.cfi_startproc
	endbr64
	pushq	%r15
	.cfi_def_cfa_offset 16
	.cfi_offset 15, -16
	pushq	%r14
	.cfi_def_cfa_offset 24
	.cfi_offset 14, -24
	pushq	%r13
	.cfi_def_cfa_offset 32
	.cfi_offset 13, -32
	pushq	%r12
	.cfi_def_cfa_offset 40
	.cfi_offset 12, -40
	pushq	%rbp
	.cfi_def_cfa_offset 48
	.cfi_offset 6, -48
	pushq	%rbx
	.cfi_def_cfa_offset 56
	.cfi_offset 3, -56
	subq	$104, %rsp
	.cfi_def_cfa_offset 160
	movq	%rsi, 24(%rsp)
	movq	%rdx, %rbp
	movl	%ecx, %eax
	movapd	%xmm0, %xmm3
	movl	%r8d, %r15d
	movsd	.LC38(%rip), %xmm2
	mulsd	80(%rdi), %xmm2
	sqrtsd	%xmm2, %xmm2
	movl	%ecx, %edx
	pxor	%xmm1, %xmm1
	cvtsi2sdq	%rdx, %xmm1
	movapd	%xmm1, %xmm4
	sqrtsd	%xmm4, %xmm4
	movsd	.LC57(%rip), %xmm0
	divsd	%xmm2, %xmm0
	mulsd	%xmm1, %xmm1
	mulsd	%xmm1, %xmm0
	divsd	%xmm4, %xmm0
	movsd	%xmm0, 64(%rsp)
	addl	%eax, %eax
	movl	%eax, %edx
	imulq	$613566757, %rdx, %rdx
	shrq	$32, %rdx
	subl	%edx, %eax
	shrl	%eax
	addl	%edx, %eax
	shrl	$2, %eax
	movl	%eax, %eax
	pxor	%xmm0, %xmm0
	cvtsi2sdq	%rax, %xmm0
	mulsd	%xmm3, %xmm0
	movsd	%xmm0, 72(%rsp)
	leal	1(%r8,%r8), %r13d
	movl	%r13d, %eax
	imull	%r13d, %eax
	movl	%eax, 92(%rsp)
	movl	%r8d, 88(%rsp)
	movq	$0x000000000, 16(%rsp)
	movl	$0, 84(%rsp)
	jmp	.L961
.L969:
	movsd	72(%rsp), %xmm6
	mulsd	8(%rsp), %xmm6
	movapd	%xmm6, %xmm7
	mulsd	%xmm6, %xmm7
	movsd	%xmm7, 48(%rsp)
	movapd	%xmm7, %xmm4
	mulsd	%xmm6, %xmm4
	movapd	%xmm4, %xmm5
	movsd	%xmm4, 32(%rsp)
	mulsd	%xmm6, %xmm5
	movsd	%xmm5, 40(%rsp)
	movsd	%xmm6, 56(%rsp)
	movapd	%xmm6, %xmm0
	mulsd	.LC7(%rip), %xmm0
	call	exp@PLT
	movapd	%xmm0, %xmm2
	movsd	40(%rsp), %xmm5
	movapd	%xmm5, %xmm1
	mulsd	.LC58(%rip), %xmm1
	movsd	32(%rsp), %xmm3
	mulsd	.LC59(%rip), %xmm3
	subsd	%xmm3, %xmm1
	movsd	48(%rsp), %xmm4
	mulsd	.LC60(%rip), %xmm4
	movapd	%xmm4, %xmm0
	movsd	56(%rsp), %xmm6
	movapd	%xmm6, %xmm3
	mulsd	.LC61(%rip), %xmm3
	subsd	%xmm3, %xmm0
	addsd	%xmm0, %xmm1
	mulsd	%xmm6, %xmm5
	movsd	.LC62(%rip), %xmm3
	subsd	%xmm5, %xmm3
	addsd	%xmm3, %xmm1
	mulsd	%xmm6, %xmm1
	pxor	%xmm0, %xmm0
	cvtsi2sdl	%ebx, %xmm0
	mulsd	64(%rsp), %xmm0
	mulsd	%xmm1, %xmm0
	mulsd	%xmm2, %xmm0
	divsd	8(%rsp), %xmm0
	movq	24(%rsp), %rax
	movsd	%xmm0, (%rax,%r12,8)
	mulsd	%xmm0, %xmm0
	addsd	16(%rsp), %xmm0
	movsd	%xmm0, 16(%rsp)
.L964:
	addl	$1, %ebx
	leal	(%rbx,%r15), %eax
	cmpl	%r13d, %eax
	jnb	.L972
.L965:
	leal	(%r14,%rbx), %r12d
	movsd	0(%rbp,%r12,8), %xmm2
	movsd	%xmm2, 8(%rsp)
	pxor	%xmm7, %xmm7
	ucomisd	%xmm7, %xmm2
	jp	.L969
	jne	.L969
	movq	24(%rsp), %rax
	movq	$0x000000000, (%rax,%r12,8)
	jmp	.L964
.L972:
	addl	$1, 80(%rsp)
	movl	80(%rsp), %eax
	addl	%r13d, %r14d
	cmpl	%r13d, %eax
	jnb	.L966
.L968:
	movl	%r15d, %ebx
	negl	%ebx
	jmp	.L965
.L966:
	addl	$1, 84(%rsp)
	movl	84(%rsp), %eax
	movl	92(%rsp), %esi
	addl	%esi, 88(%rsp)
	cmpl	%r13d, %eax
	jnb	.L967
.L961:
	movl	88(%rsp), %r14d
	movl	$0, 80(%rsp)
	jmp	.L968
.L967:
	movsd	16(%rsp), %xmm0
	sqrtsd	%xmm0, %xmm0
	addq	$104, %rsp
	.cfi_def_cfa_offset 56
	popq	%rbx
	.cfi_def_cfa_offset 48
	popq	%rbp
	.cfi_def_cfa_offset 40
	popq	%r12
	.cfi_def_cfa_offset 32
	popq	%r13
	.cfi_def_cfa_offset 24
	popq	%r14
	.cfi_def_cfa_offset 16
	popq	%r15
	.cfi_def_cfa_offset 8
	ret
	.cfi_endproc
.LFE11060:
	.size	_ZN22basis_set_calculationsIdE25Wavefunction_7px_generateEPdS1_jdj, .-_ZN22basis_set_calculationsIdE25Wavefunction_7px_generateEPdS1_jdj
	.section	.text._ZN22basis_set_calculationsIdE25Wavefunction_7pz_generateEPdS1_jdj,"axG",@progbits,_ZN22basis_set_calculationsIdE25Wavefunction_7pz_generateEPdS1_jdj,comdat
	.align 2
	.weak	_ZN22basis_set_calculationsIdE25Wavefunction_7pz_generateEPdS1_jdj
	.type	_ZN22basis_set_calculationsIdE25Wavefunction_7pz_generateEPdS1_jdj, @function
_ZN22basis_set_calculationsIdE25Wavefunction_7pz_generateEPdS1_jdj:
.LFB11061:
	.cfi_startproc
	endbr64
	pushq	%r15
	.cfi_def_cfa_offset 16
	.cfi_offset 15, -16
	pushq	%r14
	.cfi_def_cfa_offset 24
	.cfi_offset 14, -24
	pushq	%r13
	.cfi_def_cfa_offset 32
	.cfi_offset 13, -32
	pushq	%r12
	.cfi_def_cfa_offset 40
	.cfi_offset 12, -40
	pushq	%rbp
	.cfi_def_cfa_offset 48
	.cfi_offset 6, -48
	pushq	%rbx
	.cfi_def_cfa_offset 56
	.cfi_offset 3, -56
	subq	$104, %rsp
	.cfi_def_cfa_offset 160
	movq	%rsi, %r15
	movq	%rdx, %rbp
	movl	%ecx, %eax
	movapd	%xmm0, %xmm3
	movsd	.LC38(%rip), %xmm2
	mulsd	80(%rdi), %xmm2
	sqrtsd	%xmm2, %xmm2
	movl	%ecx, %edx
	pxor	%xmm1, %xmm1
	cvtsi2sdq	%rdx, %xmm1
	movapd	%xmm1, %xmm4
	sqrtsd	%xmm4, %xmm4
	movsd	.LC57(%rip), %xmm0
	divsd	%xmm2, %xmm0
	mulsd	%xmm1, %xmm1
	mulsd	%xmm1, %xmm0
	divsd	%xmm4, %xmm0
	movsd	%xmm0, 80(%rsp)
	addl	%eax, %eax
	movl	%eax, %edx
	imulq	$613566757, %rdx, %rdx
	shrq	$32, %rdx
	subl	%edx, %eax
	shrl	%eax
	addl	%edx, %eax
	shrl	$2, %eax
	movl	%eax, %eax
	pxor	%xmm0, %xmm0
	cvtsi2sdq	%rax, %xmm0
	mulsd	%xmm3, %xmm0
	movsd	%xmm0, 56(%rsp)
	leal	1(%r8,%r8), %r13d
	movl	%r8d, %r12d
	negl	%r12d
	movl	%r13d, %eax
	imull	%r13d, %eax
	movl	%eax, 88(%rsp)
	movl	$0, %edx
	movq	$0x000000000, 8(%rsp)
	movl	%r8d, 92(%rsp)
	jmp	.L984
.L985:
	movsd	56(%rsp), %xmm6
	mulsd	(%rsp), %xmm6
	movapd	%xmm6, %xmm7
	mulsd	%xmm6, %xmm7
	movsd	%xmm7, 32(%rsp)
	movapd	%xmm7, %xmm4
	mulsd	%xmm6, %xmm4
	movapd	%xmm4, %xmm5
	movsd	%xmm4, 16(%rsp)
	mulsd	%xmm6, %xmm5
	movsd	%xmm5, 24(%rsp)
	movsd	%xmm6, 40(%rsp)
	movapd	%xmm6, %xmm0
	mulsd	.LC7(%rip), %xmm0
	call	exp@PLT
	movapd	%xmm0, %xmm3
	movsd	24(%rsp), %xmm5
	movapd	%xmm5, %xmm2
	mulsd	.LC58(%rip), %xmm2
	movapd	%xmm2, %xmm0
	movsd	16(%rsp), %xmm1
	mulsd	.LC59(%rip), %xmm1
	subsd	%xmm1, %xmm0
	movsd	32(%rsp), %xmm1
	mulsd	.LC60(%rip), %xmm1
	movsd	40(%rsp), %xmm6
	movapd	%xmm6, %xmm2
	mulsd	.LC61(%rip), %xmm2
	subsd	%xmm2, %xmm1
	addsd	%xmm1, %xmm0
	mulsd	%xmm6, %xmm5
	movsd	.LC62(%rip), %xmm1
	subsd	%xmm5, %xmm1
	addsd	%xmm1, %xmm0
	mulsd	%xmm3, %xmm0
	movapd	%xmm6, %xmm2
	mulsd	48(%rsp), %xmm2
	mulsd	%xmm2, %xmm0
	divsd	(%rsp), %xmm0
	movsd	%xmm0, (%r15,%r12,8)
	mulsd	%xmm0, %xmm0
	addsd	8(%rsp), %xmm0
	movsd	%xmm0, 8(%rsp)
.L981:
	addl	$1, %ebx
	cmpl	%r13d, %ebx
	jnb	.L989
.L982:
	leal	(%r14,%rbx), %r12d
	movsd	0(%rbp,%r12,8), %xmm3
	movsd	%xmm3, (%rsp)
	pxor	%xmm4, %xmm4
	ucomisd	%xmm4, %xmm3
	jp	.L985
	jne	.L985
	movq	$0x000000000, (%r15,%r12,8)
	jmp	.L981
.L989:
	movl	68(%rsp), %eax
	addl	$1, %eax
	addl	%r13d, %r14d
	cmpl	%r13d, %eax
	jnb	.L983
.L978:
	movl	$0, %ebx
	movl	%eax, 68(%rsp)
	jmp	.L982
.L983:
	movl	72(%rsp), %r12d
	movl	76(%rsp), %edx
	addl	$1, %r12d
	movl	88(%rsp), %eax
	addl	%eax, %edx
	movl	92(%rsp), %eax
	addl	%r12d, %eax
	cmpl	%r13d, %eax
	jnb	.L990
.L984:
	pxor	%xmm0, %xmm0
	cvtsi2sdl	%r12d, %xmm0
	mulsd	80(%rsp), %xmm0
	movsd	%xmm0, 48(%rsp)
	movl	%edx, %r14d
	movl	$0, %eax
	movl	%r12d, 72(%rsp)
	movl	%edx, 76(%rsp)
	jmp	.L978
.L990:
	movsd	8(%rsp), %xmm0
	sqrtsd	%xmm0, %xmm0
	addq	$104, %rsp
	.cfi_def_cfa_offset 56
	popq	%rbx
	.cfi_def_cfa_offset 48
	popq	%rbp
	.cfi_def_cfa_offset 40
	popq	%r12
	.cfi_def_cfa_offset 32
	popq	%r13
	.cfi_def_cfa_offset 24
	popq	%r14
	.cfi_def_cfa_offset 16
	popq	%r15
	.cfi_def_cfa_offset 8
	ret
	.cfi_endproc
.LFE11061:
	.size	_ZN22basis_set_calculationsIdE25Wavefunction_7pz_generateEPdS1_jdj, .-_ZN22basis_set_calculationsIdE25Wavefunction_7pz_generateEPdS1_jdj
	.section	.text._ZN22basis_set_calculationsIdE25Wavefunction_7py_generateEPdS1_jdj,"axG",@progbits,_ZN22basis_set_calculationsIdE25Wavefunction_7py_generateEPdS1_jdj,comdat
	.align 2
	.weak	_ZN22basis_set_calculationsIdE25Wavefunction_7py_generateEPdS1_jdj
	.type	_ZN22basis_set_calculationsIdE25Wavefunction_7py_generateEPdS1_jdj, @function
_ZN22basis_set_calculationsIdE25Wavefunction_7py_generateEPdS1_jdj:
.LFB11062:
	.cfi_startproc
	endbr64
	pushq	%r15
	.cfi_def_cfa_offset 16
	.cfi_offset 15, -16
	pushq	%r14
	.cfi_def_cfa_offset 24
	.cfi_offset 14, -24
	pushq	%r13
	.cfi_def_cfa_offset 32
	.cfi_offset 13, -32
	pushq	%r12
	.cfi_def_cfa_offset 40
	.cfi_offset 12, -40
	pushq	%rbp
	.cfi_def_cfa_offset 48
	.cfi_offset 6, -48
	pushq	%rbx
	.cfi_def_cfa_offset 56
	.cfi_offset 3, -56
	subq	$104, %rsp
	.cfi_def_cfa_offset 160
	movq	%rsi, %r15
	movq	%rdx, %r12
	movl	%ecx, %eax
	movapd	%xmm0, %xmm3
	movl	%r8d, 80(%rsp)
	movsd	.LC38(%rip), %xmm2
	mulsd	80(%rdi), %xmm2
	sqrtsd	%xmm2, %xmm2
	movl	%ecx, %edx
	pxor	%xmm1, %xmm1
	cvtsi2sdq	%rdx, %xmm1
	movapd	%xmm1, %xmm4
	sqrtsd	%xmm4, %xmm4
	movsd	.LC57(%rip), %xmm0
	divsd	%xmm2, %xmm0
	mulsd	%xmm1, %xmm1
	mulsd	%xmm1, %xmm0
	divsd	%xmm4, %xmm0
	movsd	%xmm0, 72(%rsp)
	addl	%eax, %eax
	movl	%eax, %edx
	imulq	$613566757, %rdx, %rdx
	shrq	$32, %rdx
	subl	%edx, %eax
	shrl	%eax
	addl	%edx, %eax
	shrl	$2, %eax
	movl	%eax, %eax
	pxor	%xmm0, %xmm0
	cvtsi2sdq	%rax, %xmm0
	mulsd	%xmm3, %xmm0
	movsd	%xmm0, 56(%rsp)
	leal	1(%r8,%r8), %r13d
	movl	%r13d, %ebp
	imull	%r13d, %ebp
	movl	$0, %ecx
	movq	$0x000000000, 8(%rsp)
	movl	$0, %edx
	movl	%ebp, 92(%rsp)
	jmp	.L996
.L1003:
	movsd	56(%rsp), %xmm6
	mulsd	(%rsp), %xmm6
	movapd	%xmm6, %xmm7
	mulsd	%xmm6, %xmm7
	movsd	%xmm7, 32(%rsp)
	movapd	%xmm7, %xmm4
	mulsd	%xmm6, %xmm4
	movapd	%xmm4, %xmm5
	movsd	%xmm4, 16(%rsp)
	mulsd	%xmm6, %xmm5
	movsd	%xmm5, 24(%rsp)
	movsd	%xmm6, 40(%rsp)
	movapd	%xmm6, %xmm0
	mulsd	.LC7(%rip), %xmm0
	call	exp@PLT
	movapd	%xmm0, %xmm3
	movsd	24(%rsp), %xmm5
	movapd	%xmm5, %xmm2
	mulsd	.LC58(%rip), %xmm2
	movapd	%xmm2, %xmm0
	movsd	16(%rsp), %xmm1
	mulsd	.LC59(%rip), %xmm1
	subsd	%xmm1, %xmm0
	movsd	32(%rsp), %xmm1
	mulsd	.LC60(%rip), %xmm1
	movsd	40(%rsp), %xmm6
	movapd	%xmm6, %xmm2
	mulsd	.LC61(%rip), %xmm2
	subsd	%xmm2, %xmm1
	addsd	%xmm1, %xmm0
	mulsd	%xmm6, %xmm5
	movsd	.LC62(%rip), %xmm1
	subsd	%xmm5, %xmm1
	addsd	%xmm1, %xmm0
	mulsd	%xmm3, %xmm0
	movapd	%xmm6, %xmm2
	mulsd	48(%rsp), %xmm2
	mulsd	%xmm2, %xmm0
	divsd	(%rsp), %xmm0
	movsd	%xmm0, (%r15,%rbp,8)
	mulsd	%xmm0, %xmm0
	addsd	8(%rsp), %xmm0
	movsd	%xmm0, 8(%rsp)
.L999:
	addl	$1, %ebx
	cmpl	%r13d, %ebx
	jnb	.L1007
.L1000:
	leal	(%r14,%rbx), %ebp
	movsd	(%r12,%rbp,8), %xmm3
	movsd	%xmm3, (%rsp)
	pxor	%xmm4, %xmm4
	ucomisd	%xmm4, %xmm3
	jp	.L1003
	jne	.L1003
	movq	$0x000000000, (%r15,%rbp,8)
	jmp	.L999
.L1007:
	movl	68(%rsp), %eax
	addl	$1, %eax
	addl	%r13d, %r14d
	movl	80(%rsp), %esi
	leal	(%rax,%rsi), %edx
	cmpl	%r13d, %edx
	jnb	.L1008
.L1001:
	pxor	%xmm0, %xmm0
	cvtsi2sdl	%eax, %xmm0
	mulsd	72(%rsp), %xmm0
	movsd	%xmm0, 48(%rsp)
	movl	$0, %ebx
	movl	%eax, 68(%rsp)
	jmp	.L1000
.L1008:
	movl	84(%rsp), %ecx
	movl	88(%rsp), %edx
	addl	$1, %edx
	movl	92(%rsp), %eax
	addl	%eax, %ecx
	cmpl	%r13d, %edx
	jnb	.L1002
.L996:
	movl	80(%rsp), %eax
	negl	%eax
	movl	%ecx, %r14d
	movl	%ecx, 84(%rsp)
	movl	%edx, 88(%rsp)
	jmp	.L1001
.L1002:
	movsd	8(%rsp), %xmm0
	sqrtsd	%xmm0, %xmm0
	addq	$104, %rsp
	.cfi_def_cfa_offset 56
	popq	%rbx
	.cfi_def_cfa_offset 48
	popq	%rbp
	.cfi_def_cfa_offset 40
	popq	%r12
	.cfi_def_cfa_offset 32
	popq	%r13
	.cfi_def_cfa_offset 24
	popq	%r14
	.cfi_def_cfa_offset 16
	popq	%r15
	.cfi_def_cfa_offset 8
	ret
	.cfi_endproc
.LFE11062:
	.size	_ZN22basis_set_calculationsIdE25Wavefunction_7py_generateEPdS1_jdj, .-_ZN22basis_set_calculationsIdE25Wavefunction_7py_generateEPdS1_jdj
	.section	.text._ZN22basis_set_calculationsIdE29Wavefunction_3dx2_y2_generateEPdS1_jdj,"axG",@progbits,_ZN22basis_set_calculationsIdE29Wavefunction_3dx2_y2_generateEPdS1_jdj,comdat
	.align 2
	.weak	_ZN22basis_set_calculationsIdE29Wavefunction_3dx2_y2_generateEPdS1_jdj
	.type	_ZN22basis_set_calculationsIdE29Wavefunction_3dx2_y2_generateEPdS1_jdj, @function
_ZN22basis_set_calculationsIdE29Wavefunction_3dx2_y2_generateEPdS1_jdj:
.LFB11063:
	.cfi_startproc
	endbr64
	pushq	%r15
	.cfi_def_cfa_offset 16
	.cfi_offset 15, -16
	pushq	%r14
	.cfi_def_cfa_offset 24
	.cfi_offset 14, -24
	pushq	%r13
	.cfi_def_cfa_offset 32
	.cfi_offset 13, -32
	pushq	%r12
	.cfi_def_cfa_offset 40
	.cfi_offset 12, -40
	pushq	%rbp
	.cfi_def_cfa_offset 48
	.cfi_offset 6, -48
	pushq	%rbx
	.cfi_def_cfa_offset 56
	.cfi_offset 3, -56
	subq	$88, %rsp
	.cfi_def_cfa_offset 144
	movq	%rsi, 24(%rsp)
	movq	%rdx, %rbx
	movl	%ecx, %eax
	movapd	%xmm0, %xmm3
	movl	%r8d, %r15d
	movsd	80(%rdi), %xmm0
	addsd	%xmm0, %xmm0
	sqrtsd	%xmm0, %xmm0
	movl	%ecx, %edx
	pxor	%xmm2, %xmm2
	cvtsi2sdq	%rdx, %xmm2
	movapd	%xmm2, %xmm4
	sqrtsd	%xmm4, %xmm4
	movsd	.LC63(%rip), %xmm1
	divsd	%xmm0, %xmm1
	mulsd	%xmm2, %xmm2
	mulsd	%xmm2, %xmm1
	divsd	%xmm4, %xmm1
	movsd	%xmm1, 48(%rsp)
	leal	(%rax,%rax), %eax
	movl	$2863311531, %edx
	imulq	%rdx, %rax
	shrq	$33, %rax
	pxor	%xmm0, %xmm0
	cvtsi2sdq	%rax, %xmm0
	mulsd	%xmm3, %xmm0
	movsd	%xmm0, 56(%rsp)
	leal	1(%r8,%r8), %r13d
	movl	%r13d, %eax
	imull	%r13d, %eax
	movl	%eax, 76(%rsp)
	movl	%r8d, 72(%rsp)
	movq	$0x000000000, 16(%rsp)
	movl	$0, 68(%rsp)
	movl	%r8d, %eax
	negl	%eax
	movl	%eax, 64(%rsp)
	jmp	.L1014
.L1021:
	movsd	56(%rsp), %xmm6
	mulsd	8(%rsp), %xmm6
	movapd	%xmm6, %xmm0
	movsd	%xmm6, 32(%rsp)
	mulsd	.LC7(%rip), %xmm0
	call	exp@PLT
	movapd	%xmm0, %xmm2
	movl	%ebp, %eax
	imull	%ebp, %eax
	movl	40(%rsp), %ecx
	subl	%ecx, %eax
	pxor	%xmm1, %xmm1
	cvtsi2sdl	%eax, %xmm1
	mulsd	48(%rsp), %xmm1
	movsd	32(%rsp), %xmm0
	mulsd	%xmm0, %xmm0
	mulsd	%xmm1, %xmm0
	mulsd	%xmm2, %xmm0
	movsd	8(%rsp), %xmm1
	mulsd	%xmm1, %xmm1
	divsd	%xmm1, %xmm0
	movq	24(%rsp), %rax
	movsd	%xmm0, (%rax,%r12,8)
	mulsd	%xmm0, %xmm0
	addsd	16(%rsp), %xmm0
	movsd	%xmm0, 16(%rsp)
.L1017:
	addl	$1, %ebp
	leal	(%r15,%rbp), %eax
	cmpl	%r13d, %eax
	jnb	.L1025
.L1018:
	leal	(%r14,%rbp), %r12d
	movsd	(%rbx,%r12,8), %xmm5
	movsd	%xmm5, 8(%rsp)
	pxor	%xmm7, %xmm7
	ucomisd	%xmm7, %xmm5
	jp	.L1021
	jne	.L1021
	movq	24(%rsp), %rax
	movq	$0x000000000, (%rax,%r12,8)
	jmp	.L1017
.L1025:
	addl	$1, 44(%rsp)
	movl	44(%rsp), %eax
	addl	%r13d, %r14d
	addl	%r15d, %eax
	cmpl	%r13d, %eax
	jnb	.L1026
.L1019:
	movl	44(%rsp), %esi
	movl	%esi, %eax
	imull	%esi, %eax
	movl	%eax, 40(%rsp)
	movl	64(%rsp), %ebp
	jmp	.L1018
.L1026:
	addl	$1, 68(%rsp)
	movl	68(%rsp), %eax
	movl	76(%rsp), %edx
	addl	%edx, 72(%rsp)
	cmpl	%r13d, %eax
	jnb	.L1020
.L1014:
	movl	72(%rsp), %r14d
	movl	64(%rsp), %eax
	movl	%eax, 44(%rsp)
	jmp	.L1019
.L1020:
	movsd	16(%rsp), %xmm0
	sqrtsd	%xmm0, %xmm0
	addq	$88, %rsp
	.cfi_def_cfa_offset 56
	popq	%rbx
	.cfi_def_cfa_offset 48
	popq	%rbp
	.cfi_def_cfa_offset 40
	popq	%r12
	.cfi_def_cfa_offset 32
	popq	%r13
	.cfi_def_cfa_offset 24
	popq	%r14
	.cfi_def_cfa_offset 16
	popq	%r15
	.cfi_def_cfa_offset 8
	ret
	.cfi_endproc
.LFE11063:
	.size	_ZN22basis_set_calculationsIdE29Wavefunction_3dx2_y2_generateEPdS1_jdj, .-_ZN22basis_set_calculationsIdE29Wavefunction_3dx2_y2_generateEPdS1_jdj
	.section	.text._ZN22basis_set_calculationsIdE26Wavefunction_3dxz_generateEPdS1_jdj,"axG",@progbits,_ZN22basis_set_calculationsIdE26Wavefunction_3dxz_generateEPdS1_jdj,comdat
	.align 2
	.weak	_ZN22basis_set_calculationsIdE26Wavefunction_3dxz_generateEPdS1_jdj
	.type	_ZN22basis_set_calculationsIdE26Wavefunction_3dxz_generateEPdS1_jdj, @function
_ZN22basis_set_calculationsIdE26Wavefunction_3dxz_generateEPdS1_jdj:
.LFB11064:
	.cfi_startproc
	endbr64
	pushq	%r15
	.cfi_def_cfa_offset 16
	.cfi_offset 15, -16
	pushq	%r14
	.cfi_def_cfa_offset 24
	.cfi_offset 14, -24
	pushq	%r13
	.cfi_def_cfa_offset 32
	.cfi_offset 13, -32
	pushq	%r12
	.cfi_def_cfa_offset 40
	.cfi_offset 12, -40
	pushq	%rbp
	.cfi_def_cfa_offset 48
	.cfi_offset 6, -48
	pushq	%rbx
	.cfi_def_cfa_offset 56
	.cfi_offset 3, -56
	subq	$88, %rsp
	.cfi_def_cfa_offset 144
	movq	%rsi, 16(%rsp)
	movq	%rdx, %rbp
	movl	%ecx, %eax
	movapd	%xmm0, %xmm3
	movl	%r8d, %r15d
	movsd	.LC11(%rip), %xmm2
	mulsd	80(%rdi), %xmm2
	sqrtsd	%xmm2, %xmm2
	movl	%ecx, %edx
	pxor	%xmm1, %xmm1
	cvtsi2sdq	%rdx, %xmm1
	movapd	%xmm1, %xmm4
	sqrtsd	%xmm4, %xmm4
	movsd	.LC63(%rip), %xmm0
	divsd	%xmm2, %xmm0
	mulsd	%xmm1, %xmm1
	mulsd	%xmm1, %xmm0
	divsd	%xmm4, %xmm0
	movsd	%xmm0, 40(%rsp)
	leal	(%rax,%rax), %eax
	movl	$2863311531, %edx
	imulq	%rdx, %rax
	shrq	$33, %rax
	pxor	%xmm0, %xmm0
	cvtsi2sdq	%rax, %xmm0
	mulsd	%xmm3, %xmm0
	movsd	%xmm0, 48(%rsp)
	leal	1(%r8,%r8), %r13d
	movl	%r8d, %eax
	negl	%eax
	movl	%eax, 64(%rsp)
	movl	%r13d, %edi
	imull	%r13d, %edi
	movl	%edi, 76(%rsp)
	movl	%r8d, 72(%rsp)
	movl	%eax, 68(%rsp)
	movq	$0x000000000, 8(%rsp)
	jmp	.L1038
.L1039:
	movsd	48(%rsp), %xmm6
	mulsd	(%rsp), %xmm6
	movapd	%xmm6, %xmm0
	movsd	%xmm6, 24(%rsp)
	mulsd	.LC7(%rip), %xmm0
	call	exp@PLT
	movapd	%xmm0, %xmm2
	movsd	32(%rsp), %xmm1
	movsd	(%rsp), %xmm3
	divsd	%xmm3, %xmm1
	pxor	%xmm0, %xmm0
	cvtsi2sdl	%ebx, %xmm0
	mulsd	%xmm0, %xmm1
	movsd	24(%rsp), %xmm0
	mulsd	%xmm0, %xmm0
	mulsd	%xmm1, %xmm0
	mulsd	%xmm2, %xmm0
	divsd	%xmm3, %xmm0
	mulsd	40(%rsp), %xmm0
	movq	16(%rsp), %rax
	movsd	%xmm0, (%rax,%r12,8)
	mulsd	%xmm0, %xmm0
	addsd	8(%rsp), %xmm0
	movsd	%xmm0, 8(%rsp)
.L1035:
	addl	$1, %ebx
	leal	(%r15,%rbx), %eax
	cmpl	%r13d, %eax
	jnb	.L1043
.L1036:
	leal	(%r14,%rbx), %r12d
	movsd	0(%rbp,%r12,8), %xmm5
	movsd	%xmm5, (%rsp)
	pxor	%xmm7, %xmm7
	ucomisd	%xmm7, %xmm5
	jp	.L1039
	jne	.L1039
	movq	16(%rsp), %rax
	movq	$0x000000000, (%rax,%r12,8)
	jmp	.L1035
.L1043:
	addl	$1, 60(%rsp)
	movl	60(%rsp), %eax
	addl	%r13d, %r14d
	cmpl	%r13d, %eax
	jnb	.L1037
.L1032:
	movl	64(%rsp), %ebx
	jmp	.L1036
.L1037:
	addl	$1, 68(%rsp)
	movl	68(%rsp), %eax
	movl	76(%rsp), %esi
	addl	%esi, 72(%rsp)
	addl	%r15d, %eax
	cmpl	%r13d, %eax
	jnb	.L1044
.L1038:
	movl	72(%rsp), %r14d
	movl	$0, 60(%rsp)
	pxor	%xmm4, %xmm4
	cvtsi2sdl	68(%rsp), %xmm4
	movsd	%xmm4, 32(%rsp)
	jmp	.L1032
.L1044:
	movsd	8(%rsp), %xmm0
	sqrtsd	%xmm0, %xmm0
	addq	$88, %rsp
	.cfi_def_cfa_offset 56
	popq	%rbx
	.cfi_def_cfa_offset 48
	popq	%rbp
	.cfi_def_cfa_offset 40
	popq	%r12
	.cfi_def_cfa_offset 32
	popq	%r13
	.cfi_def_cfa_offset 24
	popq	%r14
	.cfi_def_cfa_offset 16
	popq	%r15
	.cfi_def_cfa_offset 8
	ret
	.cfi_endproc
.LFE11064:
	.size	_ZN22basis_set_calculationsIdE26Wavefunction_3dxz_generateEPdS1_jdj, .-_ZN22basis_set_calculationsIdE26Wavefunction_3dxz_generateEPdS1_jdj
	.section	.text._ZN22basis_set_calculationsIdE26Wavefunction_3dz2_generateEPdS1_jdj,"axG",@progbits,_ZN22basis_set_calculationsIdE26Wavefunction_3dz2_generateEPdS1_jdj,comdat
	.align 2
	.weak	_ZN22basis_set_calculationsIdE26Wavefunction_3dz2_generateEPdS1_jdj
	.type	_ZN22basis_set_calculationsIdE26Wavefunction_3dz2_generateEPdS1_jdj, @function
_ZN22basis_set_calculationsIdE26Wavefunction_3dz2_generateEPdS1_jdj:
.LFB11065:
	.cfi_startproc
	endbr64
	pushq	%r15
	.cfi_def_cfa_offset 16
	.cfi_offset 15, -16
	pushq	%r14
	.cfi_def_cfa_offset 24
	.cfi_offset 14, -24
	pushq	%r13
	.cfi_def_cfa_offset 32
	.cfi_offset 13, -32
	pushq	%r12
	.cfi_def_cfa_offset 40
	.cfi_offset 12, -40
	pushq	%rbp
	.cfi_def_cfa_offset 48
	.cfi_offset 6, -48
	pushq	%rbx
	.cfi_def_cfa_offset 56
	.cfi_offset 3, -56
	subq	$88, %rsp
	.cfi_def_cfa_offset 144
	movq	%rsi, %r15
	movq	%rdx, %rbx
	movl	%ecx, %eax
	movapd	%xmm0, %xmm3
	movl	%r8d, 76(%rsp)
	movsd	.LC22(%rip), %xmm2
	mulsd	80(%rdi), %xmm2
	sqrtsd	%xmm2, %xmm2
	movl	%ecx, %edx
	pxor	%xmm1, %xmm1
	cvtsi2sdq	%rdx, %xmm1
	movapd	%xmm1, %xmm4
	sqrtsd	%xmm4, %xmm4
	movsd	.LC63(%rip), %xmm0
	divsd	%xmm2, %xmm0
	mulsd	%xmm1, %xmm1
	mulsd	%xmm1, %xmm0
	divsd	%xmm4, %xmm0
	movsd	%xmm0, 40(%rsp)
	leal	(%rax,%rax), %eax
	movl	$2863311531, %edx
	imulq	%rdx, %rax
	shrq	$33, %rax
	pxor	%xmm0, %xmm0
	cvtsi2sdq	%rax, %xmm0
	mulsd	%xmm3, %xmm0
	movsd	%xmm0, 48(%rsp)
	leal	1(%r8,%r8), %r13d
	negl	%r8d
	movl	%r8d, 64(%rsp)
	movl	%r13d, %eax
	imull	%r13d, %eax
	movl	%eax, 72(%rsp)
	movl	$0, 68(%rsp)
	movq	$0x000000000, 16(%rsp)
	jmp	.L1056
.L1057:
	movsd	48(%rsp), %xmm6
	mulsd	8(%rsp), %xmm6
	movapd	%xmm6, %xmm0
	movsd	%xmm6, 24(%rsp)
	mulsd	.LC7(%rip), %xmm0
	call	exp@PLT
	movapd	%xmm0, %xmm3
	movsd	8(%rsp), %xmm2
	mulsd	%xmm2, %xmm2
	movsd	32(%rsp), %xmm1
	subsd	%xmm2, %xmm1
	mulsd	40(%rsp), %xmm1
	movsd	24(%rsp), %xmm0
	mulsd	%xmm0, %xmm0
	mulsd	%xmm1, %xmm0
	mulsd	%xmm3, %xmm0
	divsd	%xmm2, %xmm0
	movsd	%xmm0, (%r15,%r12,8)
	mulsd	%xmm0, %xmm0
	addsd	16(%rsp), %xmm0
	movsd	%xmm0, 16(%rsp)
.L1053:
	addl	$1, %ebp
	cmpl	%r13d, %ebp
	jnb	.L1061
.L1054:
	leal	(%r14,%rbp), %r12d
	movsd	(%rbx,%r12,8), %xmm5
	movsd	%xmm5, 8(%rsp)
	pxor	%xmm7, %xmm7
	ucomisd	%xmm7, %xmm5
	jp	.L1057
	jne	.L1057
	movq	$0x000000000, (%r15,%r12,8)
	jmp	.L1053
.L1061:
	addl	$1, 60(%rsp)
	movl	60(%rsp), %eax
	addl	%r13d, %r14d
	cmpl	%r13d, %eax
	jnb	.L1055
.L1050:
	movl	$0, %ebp
	jmp	.L1054
.L1055:
	addl	$1, 64(%rsp)
	movl	64(%rsp), %eax
	movl	72(%rsp), %edi
	addl	%edi, 68(%rsp)
	movl	76(%rsp), %edx
	addl	%edx, %eax
	cmpl	%r13d, %eax
	jnb	.L1062
.L1056:
	movl	64(%rsp), %ecx
	movl	%ecx, %eax
	imull	%ecx, %eax
	leal	(%rax,%rax,2), %eax
	pxor	%xmm6, %xmm6
	cvtsi2sdl	%eax, %xmm6
	movsd	%xmm6, 32(%rsp)
	movl	68(%rsp), %r14d
	movl	$0, 60(%rsp)
	jmp	.L1050
.L1062:
	movsd	16(%rsp), %xmm0
	sqrtsd	%xmm0, %xmm0
	addq	$88, %rsp
	.cfi_def_cfa_offset 56
	popq	%rbx
	.cfi_def_cfa_offset 48
	popq	%rbp
	.cfi_def_cfa_offset 40
	popq	%r12
	.cfi_def_cfa_offset 32
	popq	%r13
	.cfi_def_cfa_offset 24
	popq	%r14
	.cfi_def_cfa_offset 16
	popq	%r15
	.cfi_def_cfa_offset 8
	ret
	.cfi_endproc
.LFE11065:
	.size	_ZN22basis_set_calculationsIdE26Wavefunction_3dz2_generateEPdS1_jdj, .-_ZN22basis_set_calculationsIdE26Wavefunction_3dz2_generateEPdS1_jdj
	.section	.text._ZN22basis_set_calculationsIdE26Wavefunction_3dyz_generateEPdS1_jdj,"axG",@progbits,_ZN22basis_set_calculationsIdE26Wavefunction_3dyz_generateEPdS1_jdj,comdat
	.align 2
	.weak	_ZN22basis_set_calculationsIdE26Wavefunction_3dyz_generateEPdS1_jdj
	.type	_ZN22basis_set_calculationsIdE26Wavefunction_3dyz_generateEPdS1_jdj, @function
_ZN22basis_set_calculationsIdE26Wavefunction_3dyz_generateEPdS1_jdj:
.LFB11066:
	.cfi_startproc
	endbr64
	pushq	%r15
	.cfi_def_cfa_offset 16
	.cfi_offset 15, -16
	pushq	%r14
	.cfi_def_cfa_offset 24
	.cfi_offset 14, -24
	pushq	%r13
	.cfi_def_cfa_offset 32
	.cfi_offset 13, -32
	pushq	%r12
	.cfi_def_cfa_offset 40
	.cfi_offset 12, -40
	pushq	%rbp
	.cfi_def_cfa_offset 48
	.cfi_offset 6, -48
	pushq	%rbx
	.cfi_def_cfa_offset 56
	.cfi_offset 3, -56
	subq	$88, %rsp
	.cfi_def_cfa_offset 144
	movq	%rsi, %r15
	movq	%rdx, %rbx
	movl	%ecx, %eax
	movapd	%xmm0, %xmm3
	movl	%r8d, 60(%rsp)
	movsd	.LC11(%rip), %xmm2
	mulsd	80(%rdi), %xmm2
	sqrtsd	%xmm2, %xmm2
	movl	%ecx, %edx
	pxor	%xmm1, %xmm1
	cvtsi2sdq	%rdx, %xmm1
	movapd	%xmm1, %xmm4
	sqrtsd	%xmm4, %xmm4
	movsd	.LC63(%rip), %xmm0
	divsd	%xmm2, %xmm0
	mulsd	%xmm1, %xmm1
	mulsd	%xmm1, %xmm0
	divsd	%xmm4, %xmm0
	movsd	%xmm0, 40(%rsp)
	leal	(%rax,%rax), %eax
	movl	$2863311531, %edx
	imulq	%rdx, %rax
	shrq	$33, %rax
	pxor	%xmm0, %xmm0
	cvtsi2sdq	%rax, %xmm0
	mulsd	%xmm3, %xmm0
	movsd	%xmm0, 48(%rsp)
	leal	1(%r8,%r8), %r13d
	negl	%r8d
	movl	%r8d, 72(%rsp)
	movl	%r13d, %eax
	imull	%r13d, %eax
	movl	%eax, 76(%rsp)
	movl	%r8d, 64(%rsp)
	movl	$0, 68(%rsp)
	movq	$0x000000000, 8(%rsp)
	jmp	.L1073
.L1074:
	movsd	48(%rsp), %xmm6
	mulsd	(%rsp), %xmm6
	movapd	%xmm6, %xmm0
	movsd	%xmm6, 16(%rsp)
	mulsd	.LC7(%rip), %xmm0
	call	exp@PLT
	movapd	%xmm0, %xmm2
	movsd	32(%rsp), %xmm1
	movsd	(%rsp), %xmm3
	divsd	%xmm3, %xmm1
	mulsd	24(%rsp), %xmm1
	movsd	16(%rsp), %xmm0
	mulsd	%xmm0, %xmm0
	mulsd	%xmm1, %xmm0
	mulsd	%xmm2, %xmm0
	divsd	%xmm3, %xmm0
	mulsd	40(%rsp), %xmm0
	movsd	%xmm0, (%r15,%r12,8)
	mulsd	%xmm0, %xmm0
	addsd	8(%rsp), %xmm0
	movsd	%xmm0, 8(%rsp)
.L1070:
	addl	$1, %ebp
	cmpl	%r13d, %ebp
	jnb	.L1079
.L1071:
	leal	(%r14,%rbp), %r12d
	movsd	(%rbx,%r12,8), %xmm5
	movsd	%xmm5, (%rsp)
	pxor	%xmm7, %xmm7
	ucomisd	%xmm7, %xmm5
	jp	.L1074
	jne	.L1074
	movq	$0x000000000, (%r15,%r12,8)
	jmp	.L1070
.L1079:
	addl	$1, 56(%rsp)
	movl	56(%rsp), %eax
	addl	%r13d, %r14d
	movl	60(%rsp), %ecx
	addl	%ecx, %eax
	cmpl	%r13d, %eax
	jnb	.L1080
.L1072:
	movl	$0, %ebp
	pxor	%xmm7, %xmm7
	cvtsi2sdl	56(%rsp), %xmm7
	movsd	%xmm7, 24(%rsp)
	jmp	.L1071
.L1080:
	addl	$1, 64(%rsp)
	movl	64(%rsp), %eax
	movl	76(%rsp), %edi
	addl	%edi, 68(%rsp)
	addl	%ecx, %eax
	cmpl	%r13d, %eax
	jnb	.L1081
.L1073:
	movl	68(%rsp), %r14d
	movl	72(%rsp), %eax
	movl	%eax, 56(%rsp)
	pxor	%xmm2, %xmm2
	cvtsi2sdl	64(%rsp), %xmm2
	movsd	%xmm2, 32(%rsp)
	jmp	.L1072
.L1081:
	movsd	8(%rsp), %xmm0
	sqrtsd	%xmm0, %xmm0
	addq	$88, %rsp
	.cfi_def_cfa_offset 56
	popq	%rbx
	.cfi_def_cfa_offset 48
	popq	%rbp
	.cfi_def_cfa_offset 40
	popq	%r12
	.cfi_def_cfa_offset 32
	popq	%r13
	.cfi_def_cfa_offset 24
	popq	%r14
	.cfi_def_cfa_offset 16
	popq	%r15
	.cfi_def_cfa_offset 8
	ret
	.cfi_endproc
.LFE11066:
	.size	_ZN22basis_set_calculationsIdE26Wavefunction_3dyz_generateEPdS1_jdj, .-_ZN22basis_set_calculationsIdE26Wavefunction_3dyz_generateEPdS1_jdj
	.section	.text._ZN22basis_set_calculationsIdE26Wavefunction_3dxy_generateEPdS1_jdj,"axG",@progbits,_ZN22basis_set_calculationsIdE26Wavefunction_3dxy_generateEPdS1_jdj,comdat
	.align 2
	.weak	_ZN22basis_set_calculationsIdE26Wavefunction_3dxy_generateEPdS1_jdj
	.type	_ZN22basis_set_calculationsIdE26Wavefunction_3dxy_generateEPdS1_jdj, @function
_ZN22basis_set_calculationsIdE26Wavefunction_3dxy_generateEPdS1_jdj:
.LFB11067:
	.cfi_startproc
	endbr64
	pushq	%r15
	.cfi_def_cfa_offset 16
	.cfi_offset 15, -16
	pushq	%r14
	.cfi_def_cfa_offset 24
	.cfi_offset 14, -24
	pushq	%r13
	.cfi_def_cfa_offset 32
	.cfi_offset 13, -32
	pushq	%r12
	.cfi_def_cfa_offset 40
	.cfi_offset 12, -40
	pushq	%rbp
	.cfi_def_cfa_offset 48
	.cfi_offset 6, -48
	pushq	%rbx
	.cfi_def_cfa_offset 56
	.cfi_offset 3, -56
	subq	$88, %rsp
	.cfi_def_cfa_offset 144
	movq	%rsi, 16(%rsp)
	movq	%rdx, %r12
	movl	%ecx, %eax
	movapd	%xmm0, %xmm4
	movsd	80(%rdi), %xmm0
	addsd	%xmm0, %xmm0
	movapd	%xmm0, %xmm1
	sqrtsd	%xmm1, %xmm1
	movl	%ecx, %edx
	pxor	%xmm2, %xmm2
	cvtsi2sdq	%rdx, %xmm2
	movapd	%xmm2, %xmm3
	sqrtsd	%xmm3, %xmm3
	leal	(%rax,%rax), %eax
	movl	$2863311531, %edx
	imulq	%rdx, %rax
	shrq	$33, %rax
	pxor	%xmm0, %xmm0
	cvtsi2sdq	%rax, %xmm0
	mulsd	%xmm4, %xmm0
	movsd	%xmm0, 40(%rsp)
	leal	1(%r8,%r8), %r13d
	movsd	.LC63(%rip), %xmm0
	divsd	%xmm1, %xmm0
	mulsd	%xmm2, %xmm2
	mulsd	%xmm2, %xmm0
	divsd	%xmm3, %xmm0
	addsd	%xmm0, %xmm0
	movsd	%xmm0, 48(%rsp)
	movl	%r13d, %ebp
	imull	%r13d, %ebp
	movq	$0x000000000, 8(%rsp)
	movl	$0, %edx
	movl	%r8d, %eax
	negl	%eax
	movl	%eax, 64(%rsp)
	movl	%ebp, 76(%rsp)
	movq	%r12, %rbx
	movl	%edx, %r12d
	movl	%r8d, %edx
	movl	%r8d, %ebp
	jmp	.L1087
.L1094:
	movsd	40(%rsp), %xmm6
	mulsd	(%rsp), %xmm6
	movsd	%xmm6, 24(%rsp)
	movapd	%xmm6, %xmm0
	mulsd	.LC7(%rip), %xmm0
	call	exp@PLT
	movapd	%xmm0, %xmm2
	movsd	32(%rsp), %xmm4
	movsd	(%rsp), %xmm3
	divsd	%xmm3, %xmm4
	movapd	%xmm4, %xmm0
	pxor	%xmm1, %xmm1
	cvtsi2sdl	%ebx, %xmm1
	divsd	%xmm3, %xmm1
	mulsd	%xmm1, %xmm0
	movsd	24(%rsp), %xmm1
	mulsd	%xmm1, %xmm1
	mulsd	%xmm1, %xmm0
	mulsd	48(%rsp), %xmm2
	mulsd	%xmm2, %xmm0
	movq	16(%rsp), %rax
	movsd	%xmm0, (%rax,%r15,8)
	mulsd	%xmm0, %xmm0
	addsd	8(%rsp), %xmm0
	movsd	%xmm0, 8(%rsp)
.L1090:
	addl	$1, %ebx
	leal	0(%rbp,%rbx), %eax
	cmpl	%r13d, %eax
	jnb	.L1098
.L1091:
	leal	(%r14,%rbx), %r15d
	movsd	(%r12,%r15,8), %xmm5
	movsd	%xmm5, (%rsp)
	pxor	%xmm7, %xmm7
	ucomisd	%xmm7, %xmm5
	jp	.L1094
	jne	.L1094
	movq	16(%rsp), %rax
	movq	$0x000000000, (%rax,%r15,8)
	jmp	.L1090
.L1098:
	movl	60(%rsp), %eax
	addl	$1, %eax
	addl	%r13d, %r14d
	leal	(%rax,%rbp), %edx
	cmpl	%r13d, %edx
	jnb	.L1099
.L1092:
	movl	64(%rsp), %ebx
	pxor	%xmm2, %xmm2
	cvtsi2sdl	%eax, %xmm2
	movsd	%xmm2, 32(%rsp)
	movl	%eax, 60(%rsp)
	jmp	.L1091
.L1099:
	movl	72(%rsp), %edx
	movq	%r12, %rbx
	movl	68(%rsp), %r12d
	addl	$1, %r12d
	movl	76(%rsp), %eax
	addl	%eax, %edx
	cmpl	%r13d, %r12d
	jnb	.L1093
.L1087:
	movl	%edx, %r14d
	movl	64(%rsp), %eax
	movl	%r12d, 68(%rsp)
	movl	%edx, 72(%rsp)
	movq	%rbx, %r12
	jmp	.L1092
.L1093:
	movsd	8(%rsp), %xmm0
	sqrtsd	%xmm0, %xmm0
	addq	$88, %rsp
	.cfi_def_cfa_offset 56
	popq	%rbx
	.cfi_def_cfa_offset 48
	popq	%rbp
	.cfi_def_cfa_offset 40
	popq	%r12
	.cfi_def_cfa_offset 32
	popq	%r13
	.cfi_def_cfa_offset 24
	popq	%r14
	.cfi_def_cfa_offset 16
	popq	%r15
	.cfi_def_cfa_offset 8
	ret
	.cfi_endproc
.LFE11067:
	.size	_ZN22basis_set_calculationsIdE26Wavefunction_3dxy_generateEPdS1_jdj, .-_ZN22basis_set_calculationsIdE26Wavefunction_3dxy_generateEPdS1_jdj
	.section	.text._ZN22basis_set_calculationsIdE29Wavefunction_4dx2_y2_generateEPdS1_jdj,"axG",@progbits,_ZN22basis_set_calculationsIdE29Wavefunction_4dx2_y2_generateEPdS1_jdj,comdat
	.align 2
	.weak	_ZN22basis_set_calculationsIdE29Wavefunction_4dx2_y2_generateEPdS1_jdj
	.type	_ZN22basis_set_calculationsIdE29Wavefunction_4dx2_y2_generateEPdS1_jdj, @function
_ZN22basis_set_calculationsIdE29Wavefunction_4dx2_y2_generateEPdS1_jdj:
.LFB11068:
	.cfi_startproc
	endbr64
	pushq	%r15
	.cfi_def_cfa_offset 16
	.cfi_offset 15, -16
	pushq	%r14
	.cfi_def_cfa_offset 24
	.cfi_offset 14, -24
	pushq	%r13
	.cfi_def_cfa_offset 32
	.cfi_offset 13, -32
	pushq	%r12
	.cfi_def_cfa_offset 40
	.cfi_offset 12, -40
	pushq	%rbp
	.cfi_def_cfa_offset 48
	.cfi_offset 6, -48
	pushq	%rbx
	.cfi_def_cfa_offset 56
	.cfi_offset 3, -56
	subq	$88, %rsp
	.cfi_def_cfa_offset 144
	movq	%rsi, 24(%rsp)
	movq	%rdx, %rbx
	movl	%ecx, %eax
	movapd	%xmm0, %xmm3
	movl	%r8d, %r15d
	movsd	.LC12(%rip), %xmm2
	mulsd	80(%rdi), %xmm2
	sqrtsd	%xmm2, %xmm2
	movl	%ecx, %edx
	pxor	%xmm1, %xmm1
	cvtsi2sdq	%rdx, %xmm1
	movapd	%xmm1, %xmm4
	sqrtsd	%xmm4, %xmm4
	movsd	.LC64(%rip), %xmm0
	divsd	%xmm2, %xmm0
	mulsd	%xmm1, %xmm1
	mulsd	%xmm1, %xmm0
	divsd	%xmm4, %xmm0
	movsd	%xmm0, 48(%rsp)
	shrl	%eax
	movl	%eax, %eax
	pxor	%xmm0, %xmm0
	cvtsi2sdq	%rax, %xmm0
	mulsd	%xmm3, %xmm0
	movsd	%xmm0, 56(%rsp)
	leal	1(%r8,%r8), %r13d
	movl	%r13d, %eax
	imull	%r13d, %eax
	movl	%eax, 76(%rsp)
	movl	%r8d, 72(%rsp)
	movq	$0x000000000, 16(%rsp)
	movl	$0, 68(%rsp)
	movl	%r8d, %eax
	negl	%eax
	movl	%eax, 64(%rsp)
	jmp	.L1105
.L1112:
	movsd	56(%rsp), %xmm5
	mulsd	8(%rsp), %xmm5
	movsd	%xmm5, 32(%rsp)
	movapd	%xmm5, %xmm0
	mulsd	.LC7(%rip), %xmm0
	call	exp@PLT
	movapd	%xmm0, %xmm2
	movl	%ebp, %eax
	imull	%ebp, %eax
	movl	40(%rsp), %ecx
	subl	%ecx, %eax
	pxor	%xmm0, %xmm0
	cvtsi2sdl	%eax, %xmm0
	mulsd	48(%rsp), %xmm0
	movsd	32(%rsp), %xmm5
	movapd	%xmm5, %xmm1
	mulsd	%xmm5, %xmm1
	mulsd	%xmm1, %xmm0
	movsd	.LC22(%rip), %xmm4
	subsd	%xmm5, %xmm4
	movapd	%xmm4, %xmm1
	mulsd	%xmm2, %xmm1
	mulsd	%xmm1, %xmm0
	movsd	8(%rsp), %xmm1
	mulsd	%xmm1, %xmm1
	divsd	%xmm1, %xmm0
	movq	24(%rsp), %rax
	movsd	%xmm0, (%rax,%r12,8)
	mulsd	%xmm0, %xmm0
	addsd	16(%rsp), %xmm0
	movsd	%xmm0, 16(%rsp)
.L1108:
	addl	$1, %ebp
	leal	(%r15,%rbp), %eax
	cmpl	%r13d, %eax
	jnb	.L1116
.L1109:
	leal	(%r14,%rbp), %r12d
	movsd	(%rbx,%r12,8), %xmm6
	movsd	%xmm6, 8(%rsp)
	pxor	%xmm7, %xmm7
	ucomisd	%xmm7, %xmm6
	jp	.L1112
	jne	.L1112
	movq	24(%rsp), %rax
	movq	$0x000000000, (%rax,%r12,8)
	jmp	.L1108
.L1116:
	addl	$1, 44(%rsp)
	movl	44(%rsp), %eax
	addl	%r13d, %r14d
	addl	%r15d, %eax
	cmpl	%r13d, %eax
	jnb	.L1117
.L1110:
	movl	44(%rsp), %esi
	movl	%esi, %eax
	imull	%esi, %eax
	movl	%eax, 40(%rsp)
	movl	64(%rsp), %ebp
	jmp	.L1109
.L1117:
	addl	$1, 68(%rsp)
	movl	68(%rsp), %eax
	movl	76(%rsp), %edx
	addl	%edx, 72(%rsp)
	cmpl	%r13d, %eax
	jnb	.L1111
.L1105:
	movl	72(%rsp), %r14d
	movl	64(%rsp), %eax
	movl	%eax, 44(%rsp)
	jmp	.L1110
.L1111:
	movsd	16(%rsp), %xmm0
	sqrtsd	%xmm0, %xmm0
	addq	$88, %rsp
	.cfi_def_cfa_offset 56
	popq	%rbx
	.cfi_def_cfa_offset 48
	popq	%rbp
	.cfi_def_cfa_offset 40
	popq	%r12
	.cfi_def_cfa_offset 32
	popq	%r13
	.cfi_def_cfa_offset 24
	popq	%r14
	.cfi_def_cfa_offset 16
	popq	%r15
	.cfi_def_cfa_offset 8
	ret
	.cfi_endproc
.LFE11068:
	.size	_ZN22basis_set_calculationsIdE29Wavefunction_4dx2_y2_generateEPdS1_jdj, .-_ZN22basis_set_calculationsIdE29Wavefunction_4dx2_y2_generateEPdS1_jdj
	.section	.text._ZN22basis_set_calculationsIdE26Wavefunction_4dxz_generateEPdS1_jdj,"axG",@progbits,_ZN22basis_set_calculationsIdE26Wavefunction_4dxz_generateEPdS1_jdj,comdat
	.align 2
	.weak	_ZN22basis_set_calculationsIdE26Wavefunction_4dxz_generateEPdS1_jdj
	.type	_ZN22basis_set_calculationsIdE26Wavefunction_4dxz_generateEPdS1_jdj, @function
_ZN22basis_set_calculationsIdE26Wavefunction_4dxz_generateEPdS1_jdj:
.LFB11069:
	.cfi_startproc
	endbr64
	pushq	%r15
	.cfi_def_cfa_offset 16
	.cfi_offset 15, -16
	pushq	%r14
	.cfi_def_cfa_offset 24
	.cfi_offset 14, -24
	pushq	%r13
	.cfi_def_cfa_offset 32
	.cfi_offset 13, -32
	pushq	%r12
	.cfi_def_cfa_offset 40
	.cfi_offset 12, -40
	pushq	%rbp
	.cfi_def_cfa_offset 48
	.cfi_offset 6, -48
	pushq	%rbx
	.cfi_def_cfa_offset 56
	.cfi_offset 3, -56
	subq	$88, %rsp
	.cfi_def_cfa_offset 144
	movq	%rsi, 16(%rsp)
	movq	%rdx, %rbp
	movl	%ecx, %eax
	movapd	%xmm0, %xmm3
	movl	%r8d, %r15d
	movsd	.LC65(%rip), %xmm2
	mulsd	80(%rdi), %xmm2
	sqrtsd	%xmm2, %xmm2
	movl	%ecx, %edx
	pxor	%xmm1, %xmm1
	cvtsi2sdq	%rdx, %xmm1
	movapd	%xmm1, %xmm4
	sqrtsd	%xmm4, %xmm4
	movsd	.LC64(%rip), %xmm0
	divsd	%xmm2, %xmm0
	mulsd	%xmm1, %xmm1
	mulsd	%xmm1, %xmm0
	divsd	%xmm4, %xmm0
	movsd	%xmm0, 40(%rsp)
	shrl	%eax
	movl	%eax, %eax
	pxor	%xmm0, %xmm0
	cvtsi2sdq	%rax, %xmm0
	mulsd	%xmm3, %xmm0
	movsd	%xmm0, 48(%rsp)
	leal	1(%r8,%r8), %r13d
	movl	%r8d, %eax
	negl	%eax
	movl	%eax, 64(%rsp)
	movl	%r13d, %edi
	imull	%r13d, %edi
	movl	%edi, 76(%rsp)
	movl	%r8d, 72(%rsp)
	movl	%eax, 68(%rsp)
	movq	$0x000000000, 8(%rsp)
	jmp	.L1129
.L1130:
	movsd	48(%rsp), %xmm5
	mulsd	(%rsp), %xmm5
	movsd	%xmm5, 24(%rsp)
	movapd	%xmm5, %xmm0
	mulsd	.LC7(%rip), %xmm0
	call	exp@PLT
	movapd	%xmm0, %xmm1
	movsd	32(%rsp), %xmm4
	movsd	(%rsp), %xmm3
	divsd	%xmm3, %xmm4
	movapd	%xmm4, %xmm0
	pxor	%xmm2, %xmm2
	cvtsi2sdl	%ebx, %xmm2
	mulsd	%xmm2, %xmm0
	movsd	24(%rsp), %xmm5
	movapd	%xmm5, %xmm2
	mulsd	%xmm5, %xmm2
	mulsd	%xmm2, %xmm0
	mulsd	%xmm1, %xmm0
	divsd	%xmm3, %xmm0
	movsd	.LC22(%rip), %xmm1
	subsd	%xmm5, %xmm1
	mulsd	40(%rsp), %xmm1
	mulsd	%xmm1, %xmm0
	movq	16(%rsp), %rax
	movsd	%xmm0, (%rax,%r12,8)
	mulsd	%xmm0, %xmm0
	addsd	8(%rsp), %xmm0
	movsd	%xmm0, 8(%rsp)
.L1126:
	addl	$1, %ebx
	leal	(%r15,%rbx), %eax
	cmpl	%r13d, %eax
	jnb	.L1134
.L1127:
	leal	(%r14,%rbx), %r12d
	movsd	0(%rbp,%r12,8), %xmm6
	movsd	%xmm6, (%rsp)
	pxor	%xmm7, %xmm7
	ucomisd	%xmm7, %xmm6
	jp	.L1130
	jne	.L1130
	movq	16(%rsp), %rax
	movq	$0x000000000, (%rax,%r12,8)
	jmp	.L1126
.L1134:
	addl	$1, 60(%rsp)
	movl	60(%rsp), %eax
	addl	%r13d, %r14d
	cmpl	%r13d, %eax
	jnb	.L1128
.L1123:
	movl	64(%rsp), %ebx
	jmp	.L1127
.L1128:
	addl	$1, 68(%rsp)
	movl	68(%rsp), %eax
	movl	76(%rsp), %esi
	addl	%esi, 72(%rsp)
	addl	%r15d, %eax
	cmpl	%r13d, %eax
	jnb	.L1135
.L1129:
	movl	72(%rsp), %r14d
	movl	$0, 60(%rsp)
	pxor	%xmm4, %xmm4
	cvtsi2sdl	68(%rsp), %xmm4
	movsd	%xmm4, 32(%rsp)
	jmp	.L1123
.L1135:
	movsd	8(%rsp), %xmm0
	sqrtsd	%xmm0, %xmm0
	addq	$88, %rsp
	.cfi_def_cfa_offset 56
	popq	%rbx
	.cfi_def_cfa_offset 48
	popq	%rbp
	.cfi_def_cfa_offset 40
	popq	%r12
	.cfi_def_cfa_offset 32
	popq	%r13
	.cfi_def_cfa_offset 24
	popq	%r14
	.cfi_def_cfa_offset 16
	popq	%r15
	.cfi_def_cfa_offset 8
	ret
	.cfi_endproc
.LFE11069:
	.size	_ZN22basis_set_calculationsIdE26Wavefunction_4dxz_generateEPdS1_jdj, .-_ZN22basis_set_calculationsIdE26Wavefunction_4dxz_generateEPdS1_jdj
	.section	.text._ZN22basis_set_calculationsIdE26Wavefunction_4dz2_generateEPdS1_jdj,"axG",@progbits,_ZN22basis_set_calculationsIdE26Wavefunction_4dz2_generateEPdS1_jdj,comdat
	.align 2
	.weak	_ZN22basis_set_calculationsIdE26Wavefunction_4dz2_generateEPdS1_jdj
	.type	_ZN22basis_set_calculationsIdE26Wavefunction_4dz2_generateEPdS1_jdj, @function
_ZN22basis_set_calculationsIdE26Wavefunction_4dz2_generateEPdS1_jdj:
.LFB11070:
	.cfi_startproc
	endbr64
	pushq	%r15
	.cfi_def_cfa_offset 16
	.cfi_offset 15, -16
	pushq	%r14
	.cfi_def_cfa_offset 24
	.cfi_offset 14, -24
	pushq	%r13
	.cfi_def_cfa_offset 32
	.cfi_offset 13, -32
	pushq	%r12
	.cfi_def_cfa_offset 40
	.cfi_offset 12, -40
	pushq	%rbp
	.cfi_def_cfa_offset 48
	.cfi_offset 6, -48
	pushq	%rbx
	.cfi_def_cfa_offset 56
	.cfi_offset 3, -56
	subq	$88, %rsp
	.cfi_def_cfa_offset 144
	movq	%rsi, %r15
	movq	%rdx, %rbx
	movl	%ecx, %eax
	movapd	%xmm0, %xmm2
	movl	%r8d, 76(%rsp)
	movsd	80(%rdi), %xmm4
	sqrtsd	%xmm4, %xmm4
	movl	%ecx, %edx
	pxor	%xmm1, %xmm1
	cvtsi2sdq	%rdx, %xmm1
	movapd	%xmm1, %xmm3
	sqrtsd	%xmm3, %xmm3
	movsd	.LC64(%rip), %xmm0
	divsd	%xmm4, %xmm0
	mulsd	%xmm1, %xmm1
	mulsd	%xmm1, %xmm0
	divsd	%xmm3, %xmm0
	movsd	%xmm0, 40(%rsp)
	shrl	%eax
	movl	%eax, %eax
	pxor	%xmm0, %xmm0
	cvtsi2sdq	%rax, %xmm0
	mulsd	%xmm2, %xmm0
	movsd	%xmm0, 48(%rsp)
	leal	1(%r8,%r8), %r13d
	negl	%r8d
	movl	%r8d, 64(%rsp)
	movl	%r13d, %eax
	imull	%r13d, %eax
	movl	%eax, 72(%rsp)
	movl	$0, 68(%rsp)
	movq	$0x000000000, 16(%rsp)
	jmp	.L1147
.L1148:
	movsd	48(%rsp), %xmm5
	mulsd	8(%rsp), %xmm5
	movsd	%xmm5, 24(%rsp)
	movapd	%xmm5, %xmm0
	mulsd	.LC7(%rip), %xmm0
	call	exp@PLT
	movsd	8(%rsp), %xmm2
	mulsd	%xmm2, %xmm2
	movsd	.LC22(%rip), %xmm1
	movsd	24(%rsp), %xmm5
	subsd	%xmm5, %xmm1
	movsd	32(%rsp), %xmm3
	subsd	%xmm2, %xmm3
	mulsd	%xmm3, %xmm1
	movapd	%xmm5, %xmm3
	mulsd	%xmm5, %xmm3
	mulsd	%xmm3, %xmm1
	mulsd	40(%rsp), %xmm0
	mulsd	%xmm1, %xmm0
	divsd	%xmm2, %xmm0
	movsd	%xmm0, (%r15,%r12,8)
	mulsd	%xmm0, %xmm0
	addsd	16(%rsp), %xmm0
	movsd	%xmm0, 16(%rsp)
.L1144:
	addl	$1, %ebp
	cmpl	%r13d, %ebp
	jnb	.L1152
.L1145:
	leal	(%r14,%rbp), %r12d
	movsd	(%rbx,%r12,8), %xmm6
	movsd	%xmm6, 8(%rsp)
	pxor	%xmm7, %xmm7
	ucomisd	%xmm7, %xmm6
	jp	.L1148
	jne	.L1148
	movq	$0x000000000, (%r15,%r12,8)
	jmp	.L1144
.L1152:
	addl	$1, 60(%rsp)
	movl	60(%rsp), %eax
	addl	%r13d, %r14d
	cmpl	%r13d, %eax
	jnb	.L1146
.L1141:
	movl	$0, %ebp
	jmp	.L1145
.L1146:
	addl	$1, 64(%rsp)
	movl	64(%rsp), %eax
	movl	72(%rsp), %edi
	addl	%edi, 68(%rsp)
	movl	76(%rsp), %edx
	addl	%edx, %eax
	cmpl	%r13d, %eax
	jnb	.L1153
.L1147:
	movl	64(%rsp), %ecx
	movl	%ecx, %eax
	imull	%ecx, %eax
	leal	(%rax,%rax,2), %eax
	pxor	%xmm4, %xmm4
	cvtsi2sdl	%eax, %xmm4
	movsd	%xmm4, 32(%rsp)
	movl	68(%rsp), %r14d
	movl	$0, 60(%rsp)
	jmp	.L1141
.L1153:
	movsd	16(%rsp), %xmm0
	sqrtsd	%xmm0, %xmm0
	addq	$88, %rsp
	.cfi_def_cfa_offset 56
	popq	%rbx
	.cfi_def_cfa_offset 48
	popq	%rbp
	.cfi_def_cfa_offset 40
	popq	%r12
	.cfi_def_cfa_offset 32
	popq	%r13
	.cfi_def_cfa_offset 24
	popq	%r14
	.cfi_def_cfa_offset 16
	popq	%r15
	.cfi_def_cfa_offset 8
	ret
	.cfi_endproc
.LFE11070:
	.size	_ZN22basis_set_calculationsIdE26Wavefunction_4dz2_generateEPdS1_jdj, .-_ZN22basis_set_calculationsIdE26Wavefunction_4dz2_generateEPdS1_jdj
	.section	.text._ZN22basis_set_calculationsIdE26Wavefunction_4dyz_generateEPdS1_jdj,"axG",@progbits,_ZN22basis_set_calculationsIdE26Wavefunction_4dyz_generateEPdS1_jdj,comdat
	.align 2
	.weak	_ZN22basis_set_calculationsIdE26Wavefunction_4dyz_generateEPdS1_jdj
	.type	_ZN22basis_set_calculationsIdE26Wavefunction_4dyz_generateEPdS1_jdj, @function
_ZN22basis_set_calculationsIdE26Wavefunction_4dyz_generateEPdS1_jdj:
.LFB11071:
	.cfi_startproc
	endbr64
	pushq	%r15
	.cfi_def_cfa_offset 16
	.cfi_offset 15, -16
	pushq	%r14
	.cfi_def_cfa_offset 24
	.cfi_offset 14, -24
	pushq	%r13
	.cfi_def_cfa_offset 32
	.cfi_offset 13, -32
	pushq	%r12
	.cfi_def_cfa_offset 40
	.cfi_offset 12, -40
	pushq	%rbp
	.cfi_def_cfa_offset 48
	.cfi_offset 6, -48
	pushq	%rbx
	.cfi_def_cfa_offset 56
	.cfi_offset 3, -56
	subq	$88, %rsp
	.cfi_def_cfa_offset 144
	movq	%rsi, %r15
	movq	%rdx, %rbx
	movl	%ecx, %eax
	movapd	%xmm0, %xmm3
	movl	%r8d, 60(%rsp)
	movsd	.LC65(%rip), %xmm2
	mulsd	80(%rdi), %xmm2
	sqrtsd	%xmm2, %xmm2
	movl	%ecx, %edx
	pxor	%xmm1, %xmm1
	cvtsi2sdq	%rdx, %xmm1
	movapd	%xmm1, %xmm4
	sqrtsd	%xmm4, %xmm4
	movsd	.LC64(%rip), %xmm0
	divsd	%xmm2, %xmm0
	mulsd	%xmm1, %xmm1
	mulsd	%xmm1, %xmm0
	divsd	%xmm4, %xmm0
	movsd	%xmm0, 40(%rsp)
	shrl	%eax
	movl	%eax, %eax
	pxor	%xmm0, %xmm0
	cvtsi2sdq	%rax, %xmm0
	mulsd	%xmm3, %xmm0
	movsd	%xmm0, 48(%rsp)
	leal	1(%r8,%r8), %r13d
	negl	%r8d
	movl	%r8d, 72(%rsp)
	movl	%r13d, %eax
	imull	%r13d, %eax
	movl	%eax, 76(%rsp)
	movl	%r8d, 64(%rsp)
	movl	$0, 68(%rsp)
	movq	$0x000000000, 8(%rsp)
	jmp	.L1164
.L1165:
	movsd	48(%rsp), %xmm5
	mulsd	(%rsp), %xmm5
	movsd	%xmm5, 16(%rsp)
	movapd	%xmm5, %xmm0
	mulsd	.LC7(%rip), %xmm0
	call	exp@PLT
	movapd	%xmm0, %xmm1
	movsd	32(%rsp), %xmm4
	movsd	(%rsp), %xmm3
	divsd	%xmm3, %xmm4
	movapd	%xmm4, %xmm0
	mulsd	24(%rsp), %xmm0
	movsd	16(%rsp), %xmm5
	movapd	%xmm5, %xmm2
	mulsd	%xmm5, %xmm2
	mulsd	%xmm2, %xmm0
	mulsd	%xmm1, %xmm0
	divsd	%xmm3, %xmm0
	movsd	.LC22(%rip), %xmm1
	subsd	%xmm5, %xmm1
	mulsd	40(%rsp), %xmm1
	mulsd	%xmm1, %xmm0
	movsd	%xmm0, (%r15,%r12,8)
	mulsd	%xmm0, %xmm0
	addsd	8(%rsp), %xmm0
	movsd	%xmm0, 8(%rsp)
.L1161:
	addl	$1, %ebp
	cmpl	%r13d, %ebp
	jnb	.L1170
.L1162:
	leal	(%r14,%rbp), %r12d
	movsd	(%rbx,%r12,8), %xmm6
	movsd	%xmm6, (%rsp)
	pxor	%xmm7, %xmm7
	ucomisd	%xmm7, %xmm6
	jp	.L1165
	jne	.L1165
	movq	$0x000000000, (%r15,%r12,8)
	jmp	.L1161
.L1170:
	addl	$1, 56(%rsp)
	movl	56(%rsp), %eax
	addl	%r13d, %r14d
	movl	60(%rsp), %ecx
	addl	%ecx, %eax
	cmpl	%r13d, %eax
	jnb	.L1171
.L1163:
	movl	$0, %ebp
	pxor	%xmm4, %xmm4
	cvtsi2sdl	56(%rsp), %xmm4
	movsd	%xmm4, 24(%rsp)
	jmp	.L1162
.L1171:
	addl	$1, 64(%rsp)
	movl	64(%rsp), %eax
	movl	76(%rsp), %edi
	addl	%edi, 68(%rsp)
	addl	%ecx, %eax
	cmpl	%r13d, %eax
	jnb	.L1172
.L1164:
	movl	68(%rsp), %r14d
	movl	72(%rsp), %eax
	movl	%eax, 56(%rsp)
	pxor	%xmm2, %xmm2
	cvtsi2sdl	64(%rsp), %xmm2
	movsd	%xmm2, 32(%rsp)
	jmp	.L1163
.L1172:
	movsd	8(%rsp), %xmm0
	sqrtsd	%xmm0, %xmm0
	addq	$88, %rsp
	.cfi_def_cfa_offset 56
	popq	%rbx
	.cfi_def_cfa_offset 48
	popq	%rbp
	.cfi_def_cfa_offset 40
	popq	%r12
	.cfi_def_cfa_offset 32
	popq	%r13
	.cfi_def_cfa_offset 24
	popq	%r14
	.cfi_def_cfa_offset 16
	popq	%r15
	.cfi_def_cfa_offset 8
	ret
	.cfi_endproc
.LFE11071:
	.size	_ZN22basis_set_calculationsIdE26Wavefunction_4dyz_generateEPdS1_jdj, .-_ZN22basis_set_calculationsIdE26Wavefunction_4dyz_generateEPdS1_jdj
	.section	.text._ZN22basis_set_calculationsIdE26Wavefunction_4dxy_generateEPdS1_jdj,"axG",@progbits,_ZN22basis_set_calculationsIdE26Wavefunction_4dxy_generateEPdS1_jdj,comdat
	.align 2
	.weak	_ZN22basis_set_calculationsIdE26Wavefunction_4dxy_generateEPdS1_jdj
	.type	_ZN22basis_set_calculationsIdE26Wavefunction_4dxy_generateEPdS1_jdj, @function
_ZN22basis_set_calculationsIdE26Wavefunction_4dxy_generateEPdS1_jdj:
.LFB11072:
	.cfi_startproc
	endbr64
	pushq	%r15
	.cfi_def_cfa_offset 16
	.cfi_offset 15, -16
	pushq	%r14
	.cfi_def_cfa_offset 24
	.cfi_offset 14, -24
	pushq	%r13
	.cfi_def_cfa_offset 32
	.cfi_offset 13, -32
	pushq	%r12
	.cfi_def_cfa_offset 40
	.cfi_offset 12, -40
	pushq	%rbp
	.cfi_def_cfa_offset 48
	.cfi_offset 6, -48
	pushq	%rbx
	.cfi_def_cfa_offset 56
	.cfi_offset 3, -56
	subq	$88, %rsp
	.cfi_def_cfa_offset 144
	movq	%rsi, 16(%rsp)
	movq	%rdx, %rbp
	movl	%ecx, %eax
	movl	%r8d, %r15d
	movsd	.LC12(%rip), %xmm2
	mulsd	80(%rdi), %xmm2
	sqrtsd	%xmm2, %xmm2
	movl	%ecx, %edx
	pxor	%xmm1, %xmm1
	cvtsi2sdq	%rdx, %xmm1
	movapd	%xmm1, %xmm3
	sqrtsd	%xmm3, %xmm3
	shrl	%eax
	movl	%eax, %eax
	pxor	%xmm4, %xmm4
	cvtsi2sdq	%rax, %xmm4
	mulsd	%xmm0, %xmm4
	movsd	%xmm4, 56(%rsp)
	leal	1(%r8,%r8), %r13d
	movsd	.LC64(%rip), %xmm0
	divsd	%xmm2, %xmm0
	mulsd	%xmm1, %xmm1
	mulsd	%xmm1, %xmm0
	divsd	%xmm3, %xmm0
	addsd	%xmm0, %xmm0
